 DxGuiTestApp

 Timestamp is 3bacda72 (Sat Sep 22 11:37:38 2001)

 Preferred load address is 00400000

 Start         Length     Name                   Class
 0001:00000000 000352c4H .text                   CODE
 0001:000352d0 00001644H .text$x                 CODE
 0002:00000000 00005e49H .rdata                  DATA
 0002:00005e50 0000034cH .rdata$r                DATA
 0002:000061a0 000019b0H .xdata$x                DATA
 0002:00007b50 00000000H .edata                  DATA
 0003:00000000 00000004H .CRT$XCA                DATA
 0003:00000004 00000004H .CRT$XCU                DATA
 0003:00000008 00000004H .CRT$XCZ                DATA
 0003:0000000c 00000004H .CRT$XIA                DATA
 0003:00000010 0000000cH .CRT$XIC                DATA
 0003:0000001c 00000004H .CRT$XIY                DATA
 0003:00000020 00000004H .CRT$XIZ                DATA
 0003:00000024 00000004H .CRT$XPA                DATA
 0003:00000028 00000004H .CRT$XPX                DATA
 0003:0000002c 00000004H .CRT$XPZ                DATA
 0003:00000030 00000004H .CRT$XTA                DATA
 0003:00000034 00000004H .CRT$XTB                DATA
 0003:00000038 00000004H .CRT$XTZ                DATA
 0003:00000040 00000f70H .data                   DATA
 0003:00000fb0 000017f8H .bss                    DATA
 0004:00000000 00000050H .idata$2                DATA
 0004:00000050 00000014H .idata$3                DATA
 0004:00000064 0000018cH .idata$4                DATA
 0004:000001f0 0000018cH .idata$5                DATA
 0004:0000037c 00000694H .idata$6                DATA

  Address         Publics by Value              Rva+Base     Lib:Object

 0001:00000000       ??0BlueWindow@@QAE@XZ      00401000 f   BlueWindow.obj
 0001:00000050       ??_EBlueWindow@@UAEPAXI@Z  00401050 f i BlueWindow.obj
 0001:00000050       ??_GBlueWindow@@UAEPAXI@Z  00401050 f i BlueWindow.obj
 0001:000000b0       ??1BlueWindow@@UAE@XZ      004010b0 f   BlueWindow.obj
 0001:000000f0       ?OnCreate@BlueWindow@@MAIXXZ 004010f0 f   BlueWindow.obj
 0001:00000200       ?OnDrawWindow@BlueWindow@@MAIXPAVDGWindowSurface@@@Z 00401200 f   BlueWindow.obj
 0001:00000320       ?OnMouseEnter@BlueWindow@@MAIXHHPAE@Z 00401320 f   BlueWindow.obj
 0001:00000370       ?OnSetFocus@BlueWindow@@MAIXI@Z 00401370 f   BlueWindow.obj
 0001:000003a0       ?OnLoseFocus@BlueWindow@@MAIXI@Z 004013a0 f   BlueWindow.obj
 0001:000003d0       ??0DGRectangle@@QAE@AAV0@@Z 004013d0 f i BlueWindow.obj
 0001:00000430       ??0DGRectangle@@QAE@HHHH@Z 00401430 f i BlueWindow.obj
 0001:00000480       ??0DGColor@@QAE@EEE@Z      00401480 f i BlueWindow.obj
 0001:000004d0       ?LockSurface@DGWindowSurface@@QAIXXZ 004014d0 f i BlueWindow.obj
 0001:00000510       ?LockSurface@DGSurface@@QAIXXZ 00401510 f i BlueWindow.obj
 0001:00000550       ?UnlockSurface@DGWindowSurface@@QAIXXZ 00401550 f i BlueWindow.obj
 0001:00000590       ?UnlockSurface@DGSurface@@QAIXXZ 00401590 f i BlueWindow.obj
 0001:000005d0       ?DrawRectangle@DGWindowSurface@@QAIXVDGRectangle@@AAVDGColor@@@Z 004015d0 f i BlueWindow.obj
 0001:00000640       ?Offset@DGRectangle@@QAEXHH@Z 00401640 f i BlueWindow.obj
 0001:000006a0       ?FillSurface@DGWindowSurface@@QAIXAAVDGColor@@@Z 004016a0 f i BlueWindow.obj
 0001:000006e0       ?FillSurface@DGSurface@@QAIXAAVDGColor@@@Z 004016e0 f i BlueWindow.obj
 0001:00000730       ?GetSize@DGWindow@@QAE?AVDGPoint@@XZ 00401730 f i BlueWindow.obj
 0001:00000770       ?GetWindowID@DGWindow@@QAEIXZ 00401770 f i BlueWindow.obj
 0001:000008a0       ??1DxGuiTestApp@@UAE@XZ    004018a0 f i DxGuiTestApp.obj
 0001:000008e0       ??0DxGuiTestApp@@QAE@XZ    004018e0 f i DxGuiTestApp.obj
 0001:00000930       ??_EDxGuiTestApp@@UAEPAXI@Z 00401930 f i DxGuiTestApp.obj
 0001:00000930       ??_GDxGuiTestApp@@UAEPAXI@Z 00401930 f i DxGuiTestApp.obj
 0001:00000990       ?InitApp@DxGuiTestApp@@UAEXXZ 00401990 f   DxGuiTestApp.obj
 0001:00000af0       ??0DGPoint@@QAE@HH@Z       00401af0 f i DxGuiTestApp.obj
 0001:00000b30       ??0GreenWindow@@QAE@XZ     00401b30 f   GreenWindow.obj
 0001:00000bd0       ??_EGreenWindow@@UAEPAXI@Z 00401bd0 f i GreenWindow.obj
 0001:00000bd0       ??_GGreenWindow@@UAEPAXI@Z 00401bd0 f i GreenWindow.obj
 0001:00000c30       ??1GreenWindow@@UAE@XZ     00401c30 f i GreenWindow.obj
 0001:00000c70       ??0GreenWindow@@QAE@HHHH@Z 00401c70 f   GreenWindow.obj
 0001:00000d20       ?OnCreate@GreenWindow@@MAIXXZ 00401d20 f   GreenWindow.obj
 0001:00001000       ?OnDrawWindow@GreenWindow@@MAIXPAVDGWindowSurface@@@Z 00402000 f   GreenWindow.obj
 0001:000011f0       ?OnMouseEnter@GreenWindow@@MAIXHHPAE@Z 004021f0 f   GreenWindow.obj
 0001:00001240       ?OnSetFocus@GreenWindow@@MAIXI@Z 00402240 f   GreenWindow.obj
 0001:00001280       ?OnLoseFocus@GreenWindow@@MAIXI@Z 00402280 f   GreenWindow.obj
 0001:000012c0       ?OnLButtonDown@GreenWindow@@MAIXHHPAE@Z 004022c0 f   GreenWindow.obj
 0001:00001340       ?OnLButtonUp@GreenWindow@@MAIXHHPAE@Z 00402340 f   GreenWindow.obj
 0001:000013a0       ?OnMouseMove@GreenWindow@@MAIXHHPAE@Z 004023a0 f   GreenWindow.obj
 0001:00001480       ?OnWindowSized@GreenWindow@@MAIXXZ 00402480 f   GreenWindow.obj
 0001:000015a0       ??0DGPoint@@QAE@XZ         004025a0 f i GreenWindow.obj
 0001:000015e0       ?Offset@DGPoint@@QAEXHH@Z  004025e0 f i GreenWindow.obj
 0001:00001630       ??0DGArea@@QAE@HHHH@Z      00402630 f i GreenWindow.obj
 0001:00001680       ?GetPosition@DGWindow@@QAE?AVDGPoint@@XZ 00402680 f i GreenWindow.obj
 0001:000016c0       ?SetChildWindowDraw@DGWindow@@QAIX_N@Z 004026c0 f i GreenWindow.obj
 0001:000016f0       ??0RedWindow@@QAE@XZ       004026f0 f   RedWindow.obj
 0001:00001790       ??_ERedWindow@@UAEPAXI@Z   00402790 f i RedWindow.obj
 0001:00001790       ??_GRedWindow@@UAEPAXI@Z   00402790 f i RedWindow.obj
 0001:000017f0       ??1RedWindow@@UAE@XZ       004027f0 f i RedWindow.obj
 0001:00001870       ??0RedWindow@@QAE@HHHH@Z   00402870 f   RedWindow.obj
 0001:00001930       ?OnCreate@RedWindow@@MAIXXZ 00402930 f   RedWindow.obj
 0001:00001c90       ?OnDrawWindow@RedWindow@@MAIXPAVDGWindowSurface@@@Z 00402c90 f   RedWindow.obj
 0001:00001e80       ?OnMouseEnter@RedWindow@@MAIXHHPAE@Z 00402e80 f   RedWindow.obj
 0001:00001ed0       ?OnSetFocus@RedWindow@@MAIXI@Z 00402ed0 f   RedWindow.obj
 0001:00001f10       ?OnLoseFocus@RedWindow@@MAIXI@Z 00402f10 f   RedWindow.obj
 0001:00001f50       ?OnLButtonDown@RedWindow@@MAIXHHPAE@Z 00402f50 f   RedWindow.obj
 0001:00002020       ?OnLButtonUp@RedWindow@@MAIXHHPAE@Z 00403020 f   RedWindow.obj
 0001:00002080       ?OnMouseMove@RedWindow@@MAIXHHPAE@Z 00403080 f   RedWindow.obj
 0001:00002250       ?OnWindowSized@RedWindow@@MAIXXZ 00403250 f   RedWindow.obj
 0001:000022d0       ?OnLabelLButtonDown@RedWindow@@IAEXPAVDGMessage@@@Z 004032d0 f   RedWindow.obj
 0001:00002320       ??0?$MsgHandlerFunction@VRedWindow@@@@QAE@PAVRedWindow@@P81@AEXPAVDGMessage@@@Z@Z 00403320 f i RedWindow.obj
 0001:00002380       ??R?$MsgHandlerFunction@VRedWindow@@@@UAEXPAVDGMessage@@@Z 00403380 f i RedWindow.obj
 0001:000023d0       ?Call@?$MsgHandlerFunction@VRedWindow@@@@UAEXPAVDGMessage@@@Z 004033d0 f i RedWindow.obj
 0001:00002420       ??0MsgHandlerInterface@@QAE@XZ 00403420 f i RedWindow.obj
 0001:00002450       ??RMsgHandlerInterface@@UAEXPAVDGMessage@@@Z 00403450 f i RedWindow.obj
 0001:00002480       ?Call@MsgHandlerInterface@@UAEXPAVDGMessage@@@Z 00403480 f i RedWindow.obj
 0001:000024b0       ??0DGWindow@@QAE@I_N@Z     004034b0 f   DxGuiFramework:DGWindow.obj
 0001:00002610       ??_EDGWindow@@UAEPAXI@Z    00403610 f i DxGuiFramework:DGWindow.obj
 0001:00002610       ??_GDGWindow@@UAEPAXI@Z    00403610 f i DxGuiFramework:DGWindow.obj
 0001:00002670       ??1?$map@IPAVMsgHandlerInterface@@U?$less@I@std@@V?$allocator@PAVMsgHandlerInterface@@@3@@std@@QAE@XZ 00403670 f i DxGuiFramework:DGWindow.obj
 0001:000026b0       ??0DGWindow@@QAE@I_NABVDGArea@@@Z 004036b0 f   DxGuiFramework:DGWindow.obj
 0001:00002830       ??0DGWindow@@QAE@I_NABVDGPoint@@1@Z 00403830 f   DxGuiFramework:DGWindow.obj
 0001:000029b0       ??0DGWindow@@QAE@I_NHHHH@Z 004039b0 f   DxGuiFramework:DGWindow.obj
 0001:00002b20       ??1DGWindow@@UAE@XZ        00403b20 f   DxGuiFramework:DGWindow.obj
 0001:00002c50       ?SetPosition@DGWindow@@UAIXABVDGPoint@@@Z 00403c50 f   DxGuiFramework:DGWindow.obj
 0001:00002f00       ?SetPosition@DGWindow@@UAIXHH@Z 00403f00 f   DxGuiFramework:DGWindow.obj
 0001:000031c0       ?SetSize@DGWindow@@UAIXABVDGPoint@@@Z 004041c0 f   DxGuiFramework:DGWindow.obj
 0001:00003250       ?SetSize@DGWindow@@UAIXHH@Z 00404250 f   DxGuiFramework:DGWindow.obj
 0001:000032e0       ?SetDimensions@DGWindow@@UAIXABVDGArea@@@Z 004042e0 f   DxGuiFramework:DGWindow.obj
 0001:00003390       ?SetDimensions@DGWindow@@UAIXABVDGPoint@@0@Z 00404390 f   DxGuiFramework:DGWindow.obj
 0001:00003440       ?SetDimensions@DGWindow@@UAIXHHHH@Z 00404440 f   DxGuiFramework:DGWindow.obj
 0001:000034e0       ?HideWindow@DGWindow@@UAIXXZ 004044e0 f   DxGuiFramework:DGWindow.obj
 0001:000035b0       ?ShowWindow@DGWindow@@UAIXXZ 004045b0 f   DxGuiFramework:DGWindow.obj
 0001:00003680       ?DrawWindow@DGWindow@@UAIXXZ 00404680 f   DxGuiFramework:DGWindow.obj
 0001:000039e0       ?AddChildWindow@DGWindow@@QAIXPAV1@@Z 004049e0 f   DxGuiFramework:DGWindow.obj
 0001:00003b80       ?GetWindow@DGWindow@@QAIPAV1@I@Z 00404b80 f   DxGuiFramework:DGWindow.obj
 0001:00003c50       ?DestroyWindow@DGWindow@@QAI_NI@Z 00404c50 f   DxGuiFramework:DGWindow.obj
 0001:00003e50       ?SetTopMostChildWindow@DGWindow@@QAIXI@Z 00404e50 f   DxGuiFramework:DGWindow.obj
 0001:00003ef0       ?SendMessageA@DGWindow@@UAI_NPAVDGMessage@@@Z 00404ef0 f   DxGuiFramework:DGWindow.obj
 0001:00004130       ?SendChildMessage@DGWindow@@UAI_NPAVDGMessage@@@Z 00405130 f   DxGuiFramework:DGWindow.obj
 0001:000042b0       ?BroadcastMessage@DGWindow@@UAIXPAVDGMessage@@@Z 004052b0 f   DxGuiFramework:DGWindow.obj
 0001:00004410       ?AddMessageHandler@DGWindow@@UAIXIPAVMsgHandlerInterface@@@Z 00405410 f   DxGuiFramework:DGWindow.obj
 0001:00004480       ?RemoveMessageHandler@DGWindow@@UAIXI@Z 00405480 f   DxGuiFramework:DGWindow.obj
 0001:000044c0       ?HandleMessage@DGWindow@@UAIXPAVDGMessage@@@Z 004054c0 f   DxGuiFramework:DGWindow.obj
 0001:00004c20       ?Create@DGWindow@@UAIXXZ   00405c20 f   DxGuiFramework:DGWindow.obj
 0001:00004c80       ?Destroy@DGWindow@@UAIXXZ  00405c80 f   DxGuiFramework:DGWindow.obj
 0001:00004ce0       ?OnSetFocus@DGWindow@@MAIXI@Z 00405ce0 f   DxGuiFramework:DGWindow.obj
 0001:00004d10       ?OnLoseFocus@DGWindow@@MAIXI@Z 00405d10 f   DxGuiFramework:DGWindow.obj
 0001:00004d40       ?OnLButtonDown@DGWindow@@MAIXHHPAE@Z 00405d40 f   DxGuiFramework:DGWindow.obj
 0001:00004d70       ?OnLButtonUp@DGWindow@@MAIXHHPAE@Z 00405d70 f   DxGuiFramework:DGWindow.obj
 0001:00004da0       ?OnLButtonDblClk@DGWindow@@MAIXHHPAE@Z 00405da0 f   DxGuiFramework:DGWindow.obj
 0001:00004dd0       ?OnMButtonDown@DGWindow@@MAIXHHPAE@Z 00405dd0 f   DxGuiFramework:DGWindow.obj
 0001:00004e00       ?OnMButtonUp@DGWindow@@MAIXHHPAE@Z 00405e00 f   DxGuiFramework:DGWindow.obj
 0001:00004e30       ?OnMButtonDblClk@DGWindow@@MAIXHHPAE@Z 00405e30 f   DxGuiFramework:DGWindow.obj
 0001:00004e60       ?OnRButtonDown@DGWindow@@MAIXHHPAE@Z 00405e60 f   DxGuiFramework:DGWindow.obj
 0001:00004e90       ?OnRButtonUp@DGWindow@@MAIXHHPAE@Z 00405e90 f   DxGuiFramework:DGWindow.obj
 0001:00004ec0       ?OnRButtonDblClk@DGWindow@@MAIXHHPAE@Z 00405ec0 f   DxGuiFramework:DGWindow.obj
 0001:00004ef0       ?OnMouseMove@DGWindow@@MAIXHHPAE@Z 00405ef0 f   DxGuiFramework:DGWindow.obj
 0001:00004f20       ?OnMouseEnter@DGWindow@@MAIXHHPAE@Z 00405f20 f   DxGuiFramework:DGWindow.obj
 0001:00004f50       ?OnMouseLeave@DGWindow@@MAIXHHPAE@Z 00405f50 f   DxGuiFramework:DGWindow.obj
 0001:00004f80       ?OnKeyDown@DGWindow@@MAIXEPAE@Z 00405f80 f   DxGuiFramework:DGWindow.obj
 0001:00004fb0       ?OnKeyPressed@DGWindow@@MAIXEPAE@Z 00405fb0 f   DxGuiFramework:DGWindow.obj
 0001:00004fe0       ?OnCharacter@DGWindow@@MAIXDPAE@Z 00405fe0 f   DxGuiFramework:DGWindow.obj
 0001:00005010       ?OnWindowMoving@DGWindow@@MAIXXZ 00406010 f   DxGuiFramework:DGWindow.obj
 0001:00005040       ?OnWindowMoved@DGWindow@@MAIXXZ 00406040 f   DxGuiFramework:DGWindow.obj
 0001:00005070       ?OnWindowReposition@DGWindow@@MAIXHH@Z 00406070 f   DxGuiFramework:DGWindow.obj
 0001:000050c0       ?OnWindowSizing@DGWindow@@MAIXXZ 004060c0 f   DxGuiFramework:DGWindow.obj
 0001:000050f0       ?OnWindowSized@DGWindow@@MAIXXZ 004060f0 f   DxGuiFramework:DGWindow.obj
 0001:00005120       ?OnWindowResize@DGWindow@@MAIXHH@Z 00406120 f   DxGuiFramework:DGWindow.obj
 0001:00005170       ?OnShowWindow@DGWindow@@MAIXXZ 00406170 f   DxGuiFramework:DGWindow.obj
 0001:000051c0       ?OnHideWindow@DGWindow@@MAIXXZ 004061c0 f   DxGuiFramework:DGWindow.obj
 0001:00005210       ?OnDisplayChange@DGWindow@@MAIXMMI@Z 00406210 f   DxGuiFramework:DGWindow.obj
 0001:000052b0       ?SetPoint@DGPoint@@QAEXHH@Z 004062b0 f i DxGuiFramework:DGWindow.obj
 0001:000052f0       ?OnCreate@DGWindow@@MAIXXZ 004062f0 f   DxGuiFramework:DGWindow.obj
 0001:000053a0       ?OnDestroy@DGWindow@@MAIXXZ 004063a0 f   DxGuiFramework:DGWindow.obj
 0001:000053d0       ?OnShowChildWindow@DGWindow@@MAIXI@Z 004063d0 f   DxGuiFramework:DGWindow.obj
 0001:00005520       ?OnHideChildWindow@DGWindow@@MAIXI@Z 00406520 f   DxGuiFramework:DGWindow.obj
 0001:000055b0       ?OnParentReposition@DGWindow@@MAIXXZ 004065b0 f   DxGuiFramework:DGWindow.obj
 0001:000055f0       ?OnDrawWindow@DGWindow@@MAIXPAVDGWindowSurface@@@Z 004065f0 f   DxGuiFramework:DGWindow.obj
 0001:00005620       ?OnTitleBarDown@DGWindow@@MAEXPAVDGMessage@@@Z 00406620 f   DxGuiFramework:DGWindow.obj
 0001:00005680       ?AreCoordsInWindow@DGWindow@@QAI_NHH@Z 00406680 f   DxGuiFramework:DGWindow.obj
 0001:000056f0       ?GetWinIDOfCoords@DGWindow@@QAIIHH@Z 004066f0 f   DxGuiFramework:DGWindow.obj
 0001:00005780       ?GetChildWinIDOfCoords@DGWindow@@QAIIHH@Z 00406780 f   DxGuiFramework:DGWindow.obj
 0001:00005890       ??0DGArea@@QAE@AAV0@@Z     00406890 f i DxGuiFramework:DGWindow.obj
 0001:000058f0       ??0DGArea@@QAE@AAVDGPoint@@0@Z 004068f0 f i DxGuiFramework:DGWindow.obj
 0001:00005950       ?AbsToRelCoords@DGWindow@@QAI?AVDGPoint@@HH@Z 00406950 f   DxGuiFramework:DGWindow.obj
 0001:000059b0       ?RelToAbsCoords@DGWindow@@QAI?AVDGPoint@@HH@Z 004069b0 f   DxGuiFramework:DGWindow.obj
 0001:00005a10       ?Right@DGArea@@QAEHXZ      00406a10 f i DxGuiFramework:DGWindow.obj
 0001:00005a50       ?Bottom@DGArea@@QAEHXZ     00406a50 f i DxGuiFramework:DGWindow.obj
 0001:00005a90       ?CalculateAbsCoords@DGWindow@@AAEXXZ 00406a90 f   DxGuiFramework:DGWindow.obj
 0001:00005b10       ??0?$map@IPAVMsgHandlerInterface@@U?$less@I@std@@V?$allocator@PAVMsgHandlerInterface@@@3@@std@@QAE@ABU?$less@I@1@ABV?$allocator@PAVMsgHandlerInterface@@@1@@Z 00406b10 f i DxGuiFramework:DGWindow.obj
 0001:00005b60       ?begin@?$map@IPAVMsgHandlerInterface@@U?$less@I@std@@V?$allocator@PAVMsgHandlerInterface@@@3@@std@@QAE?AViterator@?$_Tree@IU?$pair@$$CBIPAVMsgHandlerInterface@@@std@@U_Kfn@?$map@IPAVMsgHandlerInterface@@U?$less@I@std@@V?$allocator@PAVMsgHandlerInterface@@@3@@2@U?$less@I@2@V?$allocator@PAVMsgHandlerInterface@@@2@@2@XZ 00406b60 f i DxGuiFramework:DGWindow.obj
 0001:00005bb0       ?end@?$map@IPAVMsgHandlerInterface@@U?$less@I@std@@V?$allocator@PAVMsgHandlerInterface@@@3@@std@@QAE?AViterator@?$_Tree@IU?$pair@$$CBIPAVMsgHandlerInterface@@@std@@U_Kfn@?$map@IPAVMsgHandlerInterface@@U?$less@I@std@@V?$allocator@PAVMsgHandlerInterface@@@3@@2@U?$less@I@2@V?$allocator@PAVMsgHandlerInterface@@@2@@2@XZ 00406bb0 f i DxGuiFramework:DGWindow.obj
 0001:00005c00       ?insert@?$map@IPAVMsgHandlerInterface@@U?$less@I@std@@V?$allocator@PAVMsgHandlerInterface@@@3@@std@@QAE?AU?$pair@Viterator@?$_Tree@IU?$pair@$$CBIPAVMsgHandlerInterface@@@std@@U_Kfn@?$map@IPAVMsgHandlerInterface@@U?$less@I@std@@V?$allocator@PAVMsgHandlerInterface@@@3@@2@U?$less@I@2@V?$allocator@PAVMsgHandlerInterface@@@2@@std@@_N@2@ABU?$pair@$$CBIPAVMsgHandlerInterface@@@2@@Z 00406c00 f i DxGuiFramework:DGWindow.obj
 0001:00005c70       ?erase@?$map@IPAVMsgHandlerInterface@@U?$less@I@std@@V?$allocator@PAVMsgHandlerInterface@@@3@@std@@QAEIABI@Z 00406c70 f i DxGuiFramework:DGWindow.obj
 0001:00005cb0       ?find@?$map@IPAVMsgHandlerInterface@@U?$less@I@std@@V?$allocator@PAVMsgHandlerInterface@@@3@@std@@QAE?AViterator@?$_Tree@IU?$pair@$$CBIPAVMsgHandlerInterface@@@std@@U_Kfn@?$map@IPAVMsgHandlerInterface@@U?$less@I@std@@V?$allocator@PAVMsgHandlerInterface@@@3@@2@U?$less@I@2@V?$allocator@PAVMsgHandlerInterface@@@2@@2@ABI@Z 00406cb0 f i DxGuiFramework:DGWindow.obj
 0001:00005d00       ?count@?$map@IPAVMsgHandlerInterface@@U?$less@I@std@@V?$allocator@PAVMsgHandlerInterface@@@3@@std@@QBEIABI@Z 00406d00 f i DxGuiFramework:DGWindow.obj
 0001:00005d40       ??1?$_Tree@IU?$pair@$$CBIPAVMsgHandlerInterface@@@std@@U_Kfn@?$map@IPAVMsgHandlerInterface@@U?$less@I@std@@V?$allocator@PAVMsgHandlerInterface@@@3@@2@U?$less@I@2@V?$allocator@PAVMsgHandlerInterface@@@2@@std@@QAE@XZ 00406d40 f i DxGuiFramework:DGWindow.obj
 0001:00005e30       ??0_Lockit@std@@QAE@XZ     00406e30 f i DxGuiFramework:DGWindow.obj
 0001:00005e60       ??1_Lockit@std@@QAE@XZ     00406e60 f i DxGuiFramework:DGWindow.obj
 0001:00005e90       ??0?$pair@$$CBIPAVMsgHandlerInterface@@@std@@QAE@ABIABQAVMsgHandlerInterface@@@Z 00406e90 f i DxGuiFramework:DGWindow.obj
 0001:00005ed0       ??Diterator@?$_Tree@IU?$pair@$$CBIPAVMsgHandlerInterface@@@std@@U_Kfn@?$map@IPAVMsgHandlerInterface@@U?$less@I@std@@V?$allocator@PAVMsgHandlerInterface@@@3@@2@U?$less@I@2@V?$allocator@PAVMsgHandlerInterface@@@2@@std@@QBEAAU?$pair@$$CBIPAVMsgHandlerInterface@@@2@XZ 00406ed0 f i DxGuiFramework:DGWindow.obj
 0001:00005f10       ??Eiterator@?$_Tree@IU?$pair@$$CBIPAVMsgHandlerInterface@@@std@@U_Kfn@?$map@IPAVMsgHandlerInterface@@U?$less@I@std@@V?$allocator@PAVMsgHandlerInterface@@@3@@2@U?$less@I@2@V?$allocator@PAVMsgHandlerInterface@@@2@@std@@QAE?AV012@H@Z 00406f10 f i DxGuiFramework:DGWindow.obj
 0001:00005f60       ??9iterator@?$_Tree@IU?$pair@$$CBIPAVMsgHandlerInterface@@@std@@U_Kfn@?$map@IPAVMsgHandlerInterface@@U?$less@I@std@@V?$allocator@PAVMsgHandlerInterface@@@3@@2@U?$less@I@2@V?$allocator@PAVMsgHandlerInterface@@@2@@std@@QBE_NABV012@@Z 00406f60 f i DxGuiFramework:DGWindow.obj
 0001:00005fb0       ?SetDestroy@?$DGLinkedList@VDGWindow@@@@QAEX_N@Z 00406fb0 f i DxGuiFramework:DGWindow.obj
 0001:00005fe0       ?GetNumOfItems@?$DGLinkedList@VDGWindow@@@@QAEHXZ 00406fe0 f i DxGuiFramework:DGWindow.obj
 0001:00006010       ?Begin@?$DGLinkedList@VDGWindow@@@@QAE?AV?$DGListIterator@VDGWindow@@@@XZ 00407010 f i DxGuiFramework:DGWindow.obj
 0001:00006070       ??E?$DGListIterator@VDGWindow@@@@QAEAAV0@H@Z 00407070 f i DxGuiFramework:DGWindow.obj
 0001:000060d0       ?EndOfList@?$DGListIterator@VDGWindow@@@@QAE_NXZ 004070d0 f i DxGuiFramework:DGWindow.obj
 0001:00006110       ?GetData@?$DGListIterator@VDGWindow@@@@QAEPAVDGWindow@@XZ 00407110 f i DxGuiFramework:DGWindow.obj
 0001:00006170       ??0?$MsgHandlerFunction@VDGWindow@@@@QAE@PAVDGWindow@@P81@AEXPAVDGMessage@@@Z@Z 00407170 f i DxGuiFramework:DGWindow.obj
 0001:000061d0       ??R?$MsgHandlerFunction@VDGWindow@@@@UAEXPAVDGMessage@@@Z 004071d0 f i DxGuiFramework:DGWindow.obj
 0001:00006220       ?Call@?$MsgHandlerFunction@VDGWindow@@@@UAEXPAVDGMessage@@@Z 00407220 f i DxGuiFramework:DGWindow.obj
 0001:00006270       ?_Value@?$_Tree@IU?$pair@$$CBIPAVMsgHandlerInterface@@@std@@U_Kfn@?$map@IPAVMsgHandlerInterface@@U?$less@I@std@@V?$allocator@PAVMsgHandlerInterface@@@3@@2@U?$less@I@2@V?$allocator@PAVMsgHandlerInterface@@@2@@std@@KAAAU?$pair@$$CBIPAVMsgHandlerInterface@@@2@PAU_Node@12@@Z 00407270 f i DxGuiFramework:DGWindow.obj
 0001:000062a0       ??0?$_Tree@IU?$pair@$$CBIPAVMsgHandlerInterface@@@std@@U_Kfn@?$map@IPAVMsgHandlerInterface@@U?$less@I@std@@V?$allocator@PAVMsgHandlerInterface@@@3@@2@U?$less@I@2@V?$allocator@PAVMsgHandlerInterface@@@2@@std@@QAE@ABU?$less@I@1@_NABV?$allocator@PAVMsgHandlerInterface@@@1@@Z 004072a0 f i DxGuiFramework:DGWindow.obj
 0001:00006300       ?begin@?$_Tree@IU?$pair@$$CBIPAVMsgHandlerInterface@@@std@@U_Kfn@?$map@IPAVMsgHandlerInterface@@U?$less@I@std@@V?$allocator@PAVMsgHandlerInterface@@@3@@2@U?$less@I@2@V?$allocator@PAVMsgHandlerInterface@@@2@@std@@QAE?AViterator@12@XZ 00407300 f i DxGuiFramework:DGWindow.obj
 0001:00006350       ?end@?$_Tree@IU?$pair@$$CBIPAVMsgHandlerInterface@@@std@@U_Kfn@?$map@IPAVMsgHandlerInterface@@U?$less@I@std@@V?$allocator@PAVMsgHandlerInterface@@@3@@2@U?$less@I@2@V?$allocator@PAVMsgHandlerInterface@@@2@@std@@QAE?AViterator@12@XZ 00407350 f i DxGuiFramework:DGWindow.obj
 0001:000063a0       ?insert@?$_Tree@IU?$pair@$$CBIPAVMsgHandlerInterface@@@std@@U_Kfn@?$map@IPAVMsgHandlerInterface@@U?$less@I@std@@V?$allocator@PAVMsgHandlerInterface@@@3@@2@U?$less@I@2@V?$allocator@PAVMsgHandlerInterface@@@2@@std@@QAE?AU?$pair@Viterator@?$_Tree@IU?$pair@$$CBIPAVMsgHandlerInterface@@@std@@U_Kfn@?$map@IPAVMsgHandlerInterface@@U?$less@I@std@@V?$allocator@PAVMsgHandlerInterface@@@3@@2@U?$less@I@2@V?$allocator@PAVMsgHandlerInterface@@@2@@std@@_N@2@ABU?$pair@$$CBIPAVMsgHandlerInterface@@@2@@Z 004073a0 f i DxGuiFramework:DGWindow.obj
 0001:00006610       ?erase@?$_Tree@IU?$pair@$$CBIPAVMsgHandlerInterface@@@std@@U_Kfn@?$map@IPAVMsgHandlerInterface@@U?$less@I@std@@V?$allocator@PAVMsgHandlerInterface@@@3@@2@U?$less@I@2@V?$allocator@PAVMsgHandlerInterface@@@2@@std@@QAE?AViterator@12@V312@0@Z 00407610 f i DxGuiFramework:DGWindow.obj
 0001:00006770       ?erase@?$_Tree@IU?$pair@$$CBIPAVMsgHandlerInterface@@@std@@U_Kfn@?$map@IPAVMsgHandlerInterface@@U?$less@I@std@@V?$allocator@PAVMsgHandlerInterface@@@3@@2@U?$less@I@2@V?$allocator@PAVMsgHandlerInterface@@@2@@std@@QAEIABI@Z 00407770 f i DxGuiFramework:DGWindow.obj
 0001:000067f0       ?find@?$_Tree@IU?$pair@$$CBIPAVMsgHandlerInterface@@@std@@U_Kfn@?$map@IPAVMsgHandlerInterface@@U?$less@I@std@@V?$allocator@PAVMsgHandlerInterface@@@3@@2@U?$less@I@2@V?$allocator@PAVMsgHandlerInterface@@@2@@std@@QAE?AViterator@12@ABI@Z 004077f0 f i DxGuiFramework:DGWindow.obj
 0001:000068b0       ?count@?$_Tree@IU?$pair@$$CBIPAVMsgHandlerInterface@@@std@@U_Kfn@?$map@IPAVMsgHandlerInterface@@U?$less@I@std@@V?$allocator@PAVMsgHandlerInterface@@@3@@2@U?$less@I@2@V?$allocator@PAVMsgHandlerInterface@@@2@@std@@QBEIABI@Z 004078b0 f i DxGuiFramework:DGWindow.obj
 0001:00006920       ?_Freenode@?$_Tree@IU?$pair@$$CBIPAVMsgHandlerInterface@@@std@@U_Kfn@?$map@IPAVMsgHandlerInterface@@U?$less@I@std@@V?$allocator@PAVMsgHandlerInterface@@@3@@2@U?$less@I@2@V?$allocator@PAVMsgHandlerInterface@@@2@@std@@IAEXPAU_Node@12@@Z 00407920 f i DxGuiFramework:DGWindow.obj
 0001:00006960       ??Eiterator@?$_Tree@IU?$pair@$$CBIPAVMsgHandlerInterface@@@std@@U_Kfn@?$map@IPAVMsgHandlerInterface@@U?$less@I@std@@V?$allocator@PAVMsgHandlerInterface@@@3@@2@U?$less@I@2@V?$allocator@PAVMsgHandlerInterface@@@2@@std@@QAEAAV012@XZ 00407960 f i DxGuiFramework:DGWindow.obj
 0001:000069a0       ??8iterator@?$_Tree@IU?$pair@$$CBIPAVMsgHandlerInterface@@@std@@U_Kfn@?$map@IPAVMsgHandlerInterface@@U?$less@I@std@@V?$allocator@PAVMsgHandlerInterface@@@3@@2@U?$less@I@2@V?$allocator@PAVMsgHandlerInterface@@@2@@std@@QBE_NABV012@@Z 004079a0 f i DxGuiFramework:DGWindow.obj
 0001:000069e0       ??0?$DGListIterator@VDGWindow@@@@QAE@PAV?$DGNode@VDGWindow@@@@H@Z 004079e0 f i DxGuiFramework:DGWindow.obj
 0001:00006a20       ??0?$pair@Viterator@?$_Tree@IU?$pair@$$CBIPAVMsgHandlerInterface@@@std@@U_Kfn@?$map@IPAVMsgHandlerInterface@@U?$less@I@std@@V?$allocator@PAVMsgHandlerInterface@@@3@@2@U?$less@I@2@V?$allocator@PAVMsgHandlerInterface@@@2@@std@@_N@std@@QAE@ABViterator@?$_Tree@IU?$pair@$$CBIPAVMsgHandlerInterface@@@std@@U_Kfn@?$map@IPAVMsgHandlerInterface@@U?$less@I@std@@V?$allocator@PAVMsgHandlerInterface@@@3@@2@U?$less@I@2@V?$allocator@PAVMsgHandlerInterface@@@2@@1@AB_N@Z 00407a20 f i DxGuiFramework:DGWindow.obj
 0001:00006a60       ??R_Kfn@?$map@IPAVMsgHandlerInterface@@U?$less@I@std@@V?$allocator@PAVMsgHandlerInterface@@@3@@std@@QBEABIABU?$pair@$$CBIPAVMsgHandlerInterface@@@2@@Z 00407a60 f i DxGuiFramework:DGWindow.obj
 0001:00006a90       ??R?$less@I@std@@QBE_NABI0@Z 00407a90 f i DxGuiFramework:DGWindow.obj
 0001:00006ad0       ?deallocate@?$allocator@PAVMsgHandlerInterface@@@std@@QAEXPAXI@Z 00407ad0 f i DxGuiFramework:DGWindow.obj
 0001:00006b10       ?_Key@?$_Tree@IU?$pair@$$CBIPAVMsgHandlerInterface@@@std@@U_Kfn@?$map@IPAVMsgHandlerInterface@@U?$less@I@std@@V?$allocator@PAVMsgHandlerInterface@@@3@@2@U?$less@I@2@V?$allocator@PAVMsgHandlerInterface@@@2@@std@@KAABIPAU_Node@12@@Z 00407b10 f i DxGuiFramework:DGWindow.obj
 0001:00006b50       ?_Left@?$_Tree@IU?$pair@$$CBIPAVMsgHandlerInterface@@@std@@U_Kfn@?$map@IPAVMsgHandlerInterface@@U?$less@I@std@@V?$allocator@PAVMsgHandlerInterface@@@3@@2@U?$less@I@2@V?$allocator@PAVMsgHandlerInterface@@@2@@std@@KAAAPAU_Node@12@PAU312@@Z 00407b50 f i DxGuiFramework:DGWindow.obj
 0001:00006b80       ?_Right@?$_Tree@IU?$pair@$$CBIPAVMsgHandlerInterface@@@std@@U_Kfn@?$map@IPAVMsgHandlerInterface@@U?$less@I@std@@V?$allocator@PAVMsgHandlerInterface@@@3@@2@U?$less@I@2@V?$allocator@PAVMsgHandlerInterface@@@2@@std@@KAAAPAU_Node@12@PAU312@@Z 00407b80 f i DxGuiFramework:DGWindow.obj
 0001:00006bb0       ?size@?$_Tree@IU?$pair@$$CBIPAVMsgHandlerInterface@@@std@@U_Kfn@?$map@IPAVMsgHandlerInterface@@U?$less@I@std@@V?$allocator@PAVMsgHandlerInterface@@@3@@2@U?$less@I@2@V?$allocator@PAVMsgHandlerInterface@@@2@@std@@QBEIXZ 00407bb0 f i DxGuiFramework:DGWindow.obj
 0001:00006be0       ?erase@?$_Tree@IU?$pair@$$CBIPAVMsgHandlerInterface@@@std@@U_Kfn@?$map@IPAVMsgHandlerInterface@@U?$less@I@std@@V?$allocator@PAVMsgHandlerInterface@@@3@@2@U?$less@I@2@V?$allocator@PAVMsgHandlerInterface@@@2@@std@@QAE?AViterator@12@V312@@Z 00407be0 f i DxGuiFramework:DGWindow.obj
 0001:00007450       ??0DGWindowSurface@@QAE@PAVDGSurface@@VDGPoint@@@Z 00408450 f i DxGuiFramework:DGWindow.obj
 0001:000074b0       ?lower_bound@?$_Tree@IU?$pair@$$CBIPAVMsgHandlerInterface@@@std@@U_Kfn@?$map@IPAVMsgHandlerInterface@@U?$less@I@std@@V?$allocator@PAVMsgHandlerInterface@@@3@@2@U?$less@I@2@V?$allocator@PAVMsgHandlerInterface@@@2@@std@@QAE?AViterator@12@ABI@Z 004084b0 f i DxGuiFramework:DGWindow.obj
 0001:00007500       ?equal_range@?$_Tree@IU?$pair@$$CBIPAVMsgHandlerInterface@@@std@@U_Kfn@?$map@IPAVMsgHandlerInterface@@U?$less@I@std@@V?$allocator@PAVMsgHandlerInterface@@@3@@2@U?$less@I@2@V?$allocator@PAVMsgHandlerInterface@@@2@@std@@QAE?AU?$pair@Viterator@?$_Tree@IU?$pair@$$CBIPAVMsgHandlerInterface@@@std@@U_Kfn@?$map@IPAVMsgHandlerInterface@@U?$less@I@std@@V?$allocator@PAVMsgHandlerInterface@@@3@@2@U?$less@I@2@V?$allocator@PAVMsgHandlerInterface@@@2@@std@@V123@@2@ABI@Z 00408500 f i DxGuiFramework:DGWindow.obj
 0001:00007570       ?equal_range@?$_Tree@IU?$pair@$$CBIPAVMsgHandlerInterface@@@std@@U_Kfn@?$map@IPAVMsgHandlerInterface@@U?$less@I@std@@V?$allocator@PAVMsgHandlerInterface@@@3@@2@U?$less@I@2@V?$allocator@PAVMsgHandlerInterface@@@2@@std@@QBE?AU?$pair@Vconst_iterator@?$_Tree@IU?$pair@$$CBIPAVMsgHandlerInterface@@@std@@U_Kfn@?$map@IPAVMsgHandlerInterface@@U?$less@I@std@@V?$allocator@PAVMsgHandlerInterface@@@3@@2@U?$less@I@2@V?$allocator@PAVMsgHandlerInterface@@@2@@std@@V123@@2@ABI@Z 00408570 f i DxGuiFramework:DGWindow.obj
 0001:000075e0       ?_Erase@?$_Tree@IU?$pair@$$CBIPAVMsgHandlerInterface@@@std@@U_Kfn@?$map@IPAVMsgHandlerInterface@@U?$less@I@std@@V?$allocator@PAVMsgHandlerInterface@@@3@@2@U?$less@I@2@V?$allocator@PAVMsgHandlerInterface@@@2@@std@@IAEXPAU_Node@12@@Z 004085e0 f i DxGuiFramework:DGWindow.obj
 0001:000076c0       ?_Init@?$_Tree@IU?$pair@$$CBIPAVMsgHandlerInterface@@@std@@U_Kfn@?$map@IPAVMsgHandlerInterface@@U?$less@I@std@@V?$allocator@PAVMsgHandlerInterface@@@3@@2@U?$less@I@2@V?$allocator@PAVMsgHandlerInterface@@@2@@std@@IAEXXZ 004086c0 f i DxGuiFramework:DGWindow.obj
 0001:000077c0       ?_Insert@?$_Tree@IU?$pair@$$CBIPAVMsgHandlerInterface@@@std@@U_Kfn@?$map@IPAVMsgHandlerInterface@@U?$less@I@std@@V?$allocator@PAVMsgHandlerInterface@@@3@@2@U?$less@I@2@V?$allocator@PAVMsgHandlerInterface@@@2@@std@@IAE?AViterator@12@PAU_Node@12@0ABU?$pair@$$CBIPAVMsgHandlerInterface@@@2@@Z 004087c0 f i DxGuiFramework:DGWindow.obj
 0001:00007cb0       ??0DGMessage@@QAE@IIHHIPAE@Z 00408cb0 f i DxGuiFramework:DGWindow.obj
 0001:00007d60       ??_EDGMessage@@UAEPAXI@Z   00408d60 f i DxGuiFramework:DGWindow.obj
 0001:00007d60       ??_GDGMessage@@UAEPAXI@Z   00408d60 f i DxGuiFramework:DGWindow.obj
 0001:00007dc0       ??1DGMessage@@UAE@XZ       00408dc0 f i DxGuiFramework:DGWindow.obj
 0001:00007e20       ?GetAbsDimensions@DGWindow@@QAE?AVDGArea@@XZ 00408e20 f i DxGuiFramework:DGWindow.obj
 0001:00007e80       ?_Lmost@?$_Tree@IU?$pair@$$CBIPAVMsgHandlerInterface@@@std@@U_Kfn@?$map@IPAVMsgHandlerInterface@@U?$less@I@std@@V?$allocator@PAVMsgHandlerInterface@@@3@@2@U?$less@I@2@V?$allocator@PAVMsgHandlerInterface@@@2@@std@@IAEAAPAU_Node@12@XZ 00408e80 f i DxGuiFramework:DGWindow.obj
 0001:00007ec0       ?_Rmost@?$_Tree@IU?$pair@$$CBIPAVMsgHandlerInterface@@@std@@U_Kfn@?$map@IPAVMsgHandlerInterface@@U?$less@I@std@@V?$allocator@PAVMsgHandlerInterface@@@3@@2@U?$less@I@2@V?$allocator@PAVMsgHandlerInterface@@@2@@std@@IAEAAPAU_Node@12@XZ 00408ec0 f i DxGuiFramework:DGWindow.obj
 0001:00007f00       ?IsWindowShowing@DGWindow@@QAE_NXZ 00408f00 f i DxGuiFramework:DGWindow.obj
 0001:00007f30       ?IsControl@DGWindow@@QAE_NXZ 00408f30 f i DxGuiFramework:DGWindow.obj
 0001:00007f60       ?_Root@?$_Tree@IU?$pair@$$CBIPAVMsgHandlerInterface@@@std@@U_Kfn@?$map@IPAVMsgHandlerInterface@@U?$less@I@std@@V?$allocator@PAVMsgHandlerInterface@@@3@@2@U?$less@I@2@V?$allocator@PAVMsgHandlerInterface@@@2@@std@@IAEAAPAU_Node@12@XZ 00408f60 f i DxGuiFramework:DGWindow.obj
 0001:00007fa0       ?_Inc@const_iterator@?$_Tree@IU?$pair@$$CBIPAVMsgHandlerInterface@@@std@@U_Kfn@?$map@IPAVMsgHandlerInterface@@U?$less@I@std@@V?$allocator@PAVMsgHandlerInterface@@@3@@2@U?$less@I@2@V?$allocator@PAVMsgHandlerInterface@@@2@@std@@QAEXXZ 00408fa0 f i DxGuiFramework:DGWindow.obj
 0001:000080a0       ?SetParent@DGWindow@@QAEXPAV1@@Z 004090a0 f i DxGuiFramework:DGWindow.obj
 0001:000080f0       ?GetParent@DGWindow@@QAEPAV1@XZ 004090f0 f i DxGuiFramework:DGWindow.obj
 0001:00008120       ?_Mynode@const_iterator@?$_Tree@IU?$pair@$$CBIPAVMsgHandlerInterface@@@std@@U_Kfn@?$map@IPAVMsgHandlerInterface@@U?$less@I@std@@V?$allocator@PAVMsgHandlerInterface@@@3@@2@U?$less@I@2@V?$allocator@PAVMsgHandlerInterface@@@2@@std@@QBEPAU_Node@23@XZ 00409120 f i DxGuiFramework:DGWindow.obj
 0001:00008150       ??0iterator@?$_Tree@IU?$pair@$$CBIPAVMsgHandlerInterface@@@std@@U_Kfn@?$map@IPAVMsgHandlerInterface@@U?$less@I@std@@V?$allocator@PAVMsgHandlerInterface@@@3@@2@U?$less@I@2@V?$allocator@PAVMsgHandlerInterface@@@2@@std@@QAE@PAU_Node@12@@Z 00409150 f i DxGuiFramework:DGWindow.obj
 0001:00008190       ??Fiterator@?$_Tree@IU?$pair@$$CBIPAVMsgHandlerInterface@@@std@@U_Kfn@?$map@IPAVMsgHandlerInterface@@U?$less@I@std@@V?$allocator@PAVMsgHandlerInterface@@@3@@2@U?$less@I@2@V?$allocator@PAVMsgHandlerInterface@@@2@@std@@QAEAAV012@XZ 00409190 f i DxGuiFramework:DGWindow.obj
 0001:000081d0       ?_Color@?$_Tree@IU?$pair@$$CBIPAVMsgHandlerInterface@@@std@@U_Kfn@?$map@IPAVMsgHandlerInterface@@U?$less@I@std@@V?$allocator@PAVMsgHandlerInterface@@@3@@2@U?$less@I@2@V?$allocator@PAVMsgHandlerInterface@@@2@@std@@KAAAW4_Redbl@12@PAU_Node@12@@Z 004091d0 f i DxGuiFramework:DGWindow.obj
 0001:00008200       ?_Parent@?$_Tree@IU?$pair@$$CBIPAVMsgHandlerInterface@@@std@@U_Kfn@?$map@IPAVMsgHandlerInterface@@U?$less@I@std@@V?$allocator@PAVMsgHandlerInterface@@@3@@2@U?$less@I@2@V?$allocator@PAVMsgHandlerInterface@@@2@@std@@KAAAPAU_Node@12@PAU312@@Z 00409200 f i DxGuiFramework:DGWindow.obj
 0001:00008230       ?lower_bound@?$_Tree@IU?$pair@$$CBIPAVMsgHandlerInterface@@@std@@U_Kfn@?$map@IPAVMsgHandlerInterface@@U?$less@I@std@@V?$allocator@PAVMsgHandlerInterface@@@3@@2@U?$less@I@2@V?$allocator@PAVMsgHandlerInterface@@@2@@std@@QBE?AVconst_iterator@12@ABI@Z 00409230 f i DxGuiFramework:DGWindow.obj
 0001:00008280       ?upper_bound@?$_Tree@IU?$pair@$$CBIPAVMsgHandlerInterface@@@std@@U_Kfn@?$map@IPAVMsgHandlerInterface@@U?$less@I@std@@V?$allocator@PAVMsgHandlerInterface@@@3@@2@U?$less@I@2@V?$allocator@PAVMsgHandlerInterface@@@2@@std@@QAE?AViterator@12@ABI@Z 00409280 f i DxGuiFramework:DGWindow.obj
 0001:000082d0       ?upper_bound@?$_Tree@IU?$pair@$$CBIPAVMsgHandlerInterface@@@std@@U_Kfn@?$map@IPAVMsgHandlerInterface@@U?$less@I@std@@V?$allocator@PAVMsgHandlerInterface@@@3@@2@U?$less@I@2@V?$allocator@PAVMsgHandlerInterface@@@2@@std@@QBE?AVconst_iterator@12@ABI@Z 004092d0 f i DxGuiFramework:DGWindow.obj
 0001:00008330       ?_Lbound@?$_Tree@IU?$pair@$$CBIPAVMsgHandlerInterface@@@std@@U_Kfn@?$map@IPAVMsgHandlerInterface@@U?$less@I@std@@V?$allocator@PAVMsgHandlerInterface@@@3@@2@U?$less@I@2@V?$allocator@PAVMsgHandlerInterface@@@2@@std@@IBEPAU_Node@12@ABI@Z 00409330 f i DxGuiFramework:DGWindow.obj
 0001:00008420       ?_Lrotate@?$_Tree@IU?$pair@$$CBIPAVMsgHandlerInterface@@@std@@U_Kfn@?$map@IPAVMsgHandlerInterface@@U?$less@I@std@@V?$allocator@PAVMsgHandlerInterface@@@3@@2@U?$less@I@2@V?$allocator@PAVMsgHandlerInterface@@@2@@std@@IAEXPAU_Node@12@@Z 00409420 f i DxGuiFramework:DGWindow.obj
 0001:000085b0       ?_Max@?$_Tree@IU?$pair@$$CBIPAVMsgHandlerInterface@@@std@@U_Kfn@?$map@IPAVMsgHandlerInterface@@U?$less@I@std@@V?$allocator@PAVMsgHandlerInterface@@@3@@2@U?$less@I@2@V?$allocator@PAVMsgHandlerInterface@@@2@@std@@KAPAU_Node@12@PAU312@@Z 004095b0 f i DxGuiFramework:DGWindow.obj
 0001:00008650       ?_Min@?$_Tree@IU?$pair@$$CBIPAVMsgHandlerInterface@@@std@@U_Kfn@?$map@IPAVMsgHandlerInterface@@U?$less@I@std@@V?$allocator@PAVMsgHandlerInterface@@@3@@2@U?$less@I@2@V?$allocator@PAVMsgHandlerInterface@@@2@@std@@KAPAU_Node@12@PAU312@@Z 00409650 f i DxGuiFramework:DGWindow.obj
 0001:000086f0       ?_Rrotate@?$_Tree@IU?$pair@$$CBIPAVMsgHandlerInterface@@@std@@U_Kfn@?$map@IPAVMsgHandlerInterface@@U?$less@I@std@@V?$allocator@PAVMsgHandlerInterface@@@3@@2@U?$less@I@2@V?$allocator@PAVMsgHandlerInterface@@@2@@std@@IAEXPAU_Node@12@@Z 004096f0 f i DxGuiFramework:DGWindow.obj
 0001:00008880       ?_Buynode@?$_Tree@IU?$pair@$$CBIPAVMsgHandlerInterface@@@std@@U_Kfn@?$map@IPAVMsgHandlerInterface@@U?$less@I@std@@V?$allocator@PAVMsgHandlerInterface@@@3@@2@U?$less@I@2@V?$allocator@PAVMsgHandlerInterface@@@2@@std@@IAEPAU_Node@12@PAU312@W4_Redbl@12@@Z 00409880 f i DxGuiFramework:DGWindow.obj
 0001:000088f0       ?_Consval@?$_Tree@IU?$pair@$$CBIPAVMsgHandlerInterface@@@std@@U_Kfn@?$map@IPAVMsgHandlerInterface@@U?$less@I@std@@V?$allocator@PAVMsgHandlerInterface@@@3@@2@U?$less@I@2@V?$allocator@PAVMsgHandlerInterface@@@2@@std@@IAEXPAU?$pair@$$CBIPAVMsgHandlerInterface@@@2@ABU32@@Z 004098f0 f i DxGuiFramework:DGWindow.obj
 0001:00008930       ?_Destval@?$_Tree@IU?$pair@$$CBIPAVMsgHandlerInterface@@@std@@U_Kfn@?$map@IPAVMsgHandlerInterface@@U?$less@I@std@@V?$allocator@PAVMsgHandlerInterface@@@3@@2@U?$less@I@2@V?$allocator@PAVMsgHandlerInterface@@@2@@std@@IAEXPAU?$pair@$$CBIPAVMsgHandlerInterface@@@2@@Z 00409930 f i DxGuiFramework:DGWindow.obj
 0001:00008970       ??0const_iterator@?$_Tree@IU?$pair@$$CBIPAVMsgHandlerInterface@@@std@@U_Kfn@?$map@IPAVMsgHandlerInterface@@U?$less@I@std@@V?$allocator@PAVMsgHandlerInterface@@@3@@2@U?$less@I@2@V?$allocator@PAVMsgHandlerInterface@@@2@@std@@QAE@PAU_Node@12@@Z 00409970 f i DxGuiFramework:DGWindow.obj
 0001:000089b0       ?_Dec@const_iterator@?$_Tree@IU?$pair@$$CBIPAVMsgHandlerInterface@@@std@@U_Kfn@?$map@IPAVMsgHandlerInterface@@U?$less@I@std@@V?$allocator@PAVMsgHandlerInterface@@@3@@2@U?$less@I@2@V?$allocator@PAVMsgHandlerInterface@@@2@@std@@QAEXXZ 004099b0 f i DxGuiFramework:DGWindow.obj
 0001:00008ae0       ??0?$pair@Viterator@?$_Tree@IU?$pair@$$CBIPAVMsgHandlerInterface@@@std@@U_Kfn@?$map@IPAVMsgHandlerInterface@@U?$less@I@std@@V?$allocator@PAVMsgHandlerInterface@@@3@@2@U?$less@I@2@V?$allocator@PAVMsgHandlerInterface@@@2@@std@@V123@@std@@QAE@ABViterator@?$_Tree@IU?$pair@$$CBIPAVMsgHandlerInterface@@@std@@U_Kfn@?$map@IPAVMsgHandlerInterface@@U?$less@I@std@@V?$allocator@PAVMsgHandlerInterface@@@3@@2@U?$less@I@2@V?$allocator@PAVMsgHandlerInterface@@@2@@1@0@Z 00409ae0 f i DxGuiFramework:DGWindow.obj
 0001:00008b20       ??0?$pair@Vconst_iterator@?$_Tree@IU?$pair@$$CBIPAVMsgHandlerInterface@@@std@@U_Kfn@?$map@IPAVMsgHandlerInterface@@U?$less@I@std@@V?$allocator@PAVMsgHandlerInterface@@@3@@2@U?$less@I@2@V?$allocator@PAVMsgHandlerInterface@@@2@@std@@V123@@std@@QAE@ABVconst_iterator@?$_Tree@IU?$pair@$$CBIPAVMsgHandlerInterface@@@std@@U_Kfn@?$map@IPAVMsgHandlerInterface@@U?$less@I@std@@V?$allocator@PAVMsgHandlerInterface@@@3@@2@U?$less@I@2@V?$allocator@PAVMsgHandlerInterface@@@2@@1@0@Z 00409b20 f i DxGuiFramework:DGWindow.obj
 0001:00008b60       ?_Charalloc@?$allocator@PAVMsgHandlerInterface@@@std@@QAEPADI@Z 00409b60 f i DxGuiFramework:DGWindow.obj
 0001:00008ba0       ?_Root@?$_Tree@IU?$pair@$$CBIPAVMsgHandlerInterface@@@std@@U_Kfn@?$map@IPAVMsgHandlerInterface@@U?$less@I@std@@V?$allocator@PAVMsgHandlerInterface@@@3@@2@U?$less@I@2@V?$allocator@PAVMsgHandlerInterface@@@2@@std@@IBEAAPAU_Node@12@XZ 00409ba0 f i DxGuiFramework:DGWindow.obj
 0001:00008be0       ?_Ubound@?$_Tree@IU?$pair@$$CBIPAVMsgHandlerInterface@@@std@@U_Kfn@?$map@IPAVMsgHandlerInterface@@U?$less@I@std@@V?$allocator@PAVMsgHandlerInterface@@@3@@2@U?$less@I@2@V?$allocator@PAVMsgHandlerInterface@@@2@@std@@IBEPAU_Node@12@ABI@Z 00409be0 f i DxGuiFramework:DGWindow.obj
 0001:00008cd0       ??0const_iterator@?$_Tree@IU?$pair@$$CBIPAVMsgHandlerInterface@@@std@@U_Kfn@?$map@IPAVMsgHandlerInterface@@U?$less@I@std@@V?$allocator@PAVMsgHandlerInterface@@@3@@2@U?$less@I@2@V?$allocator@PAVMsgHandlerInterface@@@2@@std@@QAE@ABViterator@12@@Z 00409cd0 f i DxGuiFramework:DGWindow.obj
 0001:00008d10       ??0?$DGLinkedList@VDGWindow@@@@QAE@XZ 00409d10 f i DxGuiFramework:DGWindow.obj
 0001:00008d70       ??1?$DGLinkedList@VDGWindow@@@@UAE@XZ 00409d70 f i DxGuiFramework:DGWindow.obj
 0001:00008dd0       ?Insert@?$DGLinkedList@VDGWindow@@@@QAEXPAVDGWindow@@H@Z 00409dd0 f i DxGuiFramework:DGWindow.obj
 0001:00008ea0       ?Append@?$DGLinkedList@VDGWindow@@@@QAEXPAVDGWindow@@H@Z 00409ea0 f i DxGuiFramework:DGWindow.obj
 0001:00008fd0       ?GetItemById@?$DGLinkedList@VDGWindow@@@@QAEPAVDGWindow@@H@Z 00409fd0 f i DxGuiFramework:DGWindow.obj
 0001:00009040       ?DeleteAll@?$DGLinkedList@VDGWindow@@@@QAEXXZ 0040a040 f i DxGuiFramework:DGWindow.obj
 0001:000090f0       ?RemoveById@?$DGLinkedList@VDGWindow@@@@QAEPAVDGWindow@@H@Z 0040a0f0 f i DxGuiFramework:DGWindow.obj
 0001:00009270       ?_Distance@std@@YAXViterator@?$_Tree@IU?$pair@$$CBIPAVMsgHandlerInterface@@@std@@U_Kfn@?$map@IPAVMsgHandlerInterface@@U?$less@I@std@@V?$allocator@PAVMsgHandlerInterface@@@3@@2@U?$less@I@2@V?$allocator@PAVMsgHandlerInterface@@@2@@1@0AAI@Z 0040a270 f i DxGuiFramework:DGWindow.obj
 0001:000092c0       ?_Distance@std@@YAXVconst_iterator@?$_Tree@IU?$pair@$$CBIPAVMsgHandlerInterface@@@std@@U_Kfn@?$map@IPAVMsgHandlerInterface@@U?$less@I@std@@V?$allocator@PAVMsgHandlerInterface@@@3@@2@U?$less@I@2@V?$allocator@PAVMsgHandlerInterface@@@2@@1@0AAI@Z 0040a2c0 f i DxGuiFramework:DGWindow.obj
 0001:00009310       ?swap@std@@YAXAAW4_Redbl@?$_Tree@IU?$pair@$$CBIPAVMsgHandlerInterface@@@std@@U_Kfn@?$map@IPAVMsgHandlerInterface@@U?$less@I@std@@V?$allocator@PAVMsgHandlerInterface@@@3@@2@U?$less@I@2@V?$allocator@PAVMsgHandlerInterface@@@2@@1@0@Z 0040a310 f i DxGuiFramework:DGWindow.obj
 0001:00009350       ?_Construct@std@@YAXPAU?$pair@$$CBIPAVMsgHandlerInterface@@@1@ABU21@@Z 0040a350 f i DxGuiFramework:DGWindow.obj
 0001:000093b0       ??2@YAPAXIPAX@Z            0040a3b0 f i DxGuiFramework:DGWindow.obj
 0001:000093e0       ?_Destroy@std@@YAXPAU?$pair@$$CBIPAVMsgHandlerInterface@@@1@@Z 0040a3e0 f i DxGuiFramework:DGWindow.obj
 0001:00009400       ?_Allocate@std@@YAPADHPAD@Z 0040a400 f i DxGuiFramework:DGWindow.obj
 0001:00009450       ??_E?$DGLinkedList@VDGWindow@@@@UAEPAXI@Z 0040a450 f i DxGuiFramework:DGWindow.obj
 0001:00009450       ??_G?$DGLinkedList@VDGWindow@@@@UAEPAXI@Z 0040a450 f i DxGuiFramework:DGWindow.obj
 0001:000094b0       ??0?$DGNode@VDGWindow@@@@QAE@HPAVDGWindow@@PAV0@@Z 0040a4b0 f i DxGuiFramework:DGWindow.obj
 0001:00009500       ?RemoveAll@?$DGLinkedList@VDGWindow@@@@QAEXXZ 0040a500 f i DxGuiFramework:DGWindow.obj
 0001:00009580       ?_Iter_cat@std@@YA?AUbidirectional_iterator_tag@1@ABU?$iterator@Ubidirectional_iterator_tag@std@@U?$pair@$$CBIPAVMsgHandlerInterface@@@2@H@1@@Z 0040a580 f i DxGuiFramework:DGWindow.obj
 0001:000095b0       ?_Distance@std@@YAXViterator@?$_Tree@IU?$pair@$$CBIPAVMsgHandlerInterface@@@std@@U_Kfn@?$map@IPAVMsgHandlerInterface@@U?$less@I@std@@V?$allocator@PAVMsgHandlerInterface@@@3@@2@U?$less@I@2@V?$allocator@PAVMsgHandlerInterface@@@2@@1@0AAIUbidirectional_iterator_tag@1@@Z 0040a5b0 f i DxGuiFramework:DGWindow.obj
 0001:00009610       ?_Distance@std@@YAXVconst_iterator@?$_Tree@IU?$pair@$$CBIPAVMsgHandlerInterface@@@std@@U_Kfn@?$map@IPAVMsgHandlerInterface@@U?$less@I@std@@V?$allocator@PAVMsgHandlerInterface@@@3@@2@U?$less@I@2@V?$allocator@PAVMsgHandlerInterface@@@2@@1@0AAIUbidirectional_iterator_tag@1@@Z 0040a610 f i DxGuiFramework:DGWindow.obj
 0001:00009670       ??Econst_iterator@?$_Tree@IU?$pair@$$CBIPAVMsgHandlerInterface@@@std@@U_Kfn@?$map@IPAVMsgHandlerInterface@@U?$less@I@std@@V?$allocator@PAVMsgHandlerInterface@@@3@@2@U?$less@I@2@V?$allocator@PAVMsgHandlerInterface@@@2@@std@@QAEAAV012@XZ 0040a670 f i DxGuiFramework:DGWindow.obj
 0001:000096b0       ??9const_iterator@?$_Tree@IU?$pair@$$CBIPAVMsgHandlerInterface@@@std@@U_Kfn@?$map@IPAVMsgHandlerInterface@@U?$less@I@std@@V?$allocator@PAVMsgHandlerInterface@@@3@@2@U?$less@I@2@V?$allocator@PAVMsgHandlerInterface@@@2@@std@@QBE_NABV012@@Z 0040a6b0 f i DxGuiFramework:DGWindow.obj
 0001:00009700       ??8const_iterator@?$_Tree@IU?$pair@$$CBIPAVMsgHandlerInterface@@@std@@U_Kfn@?$map@IPAVMsgHandlerInterface@@U?$less@I@std@@V?$allocator@PAVMsgHandlerInterface@@@3@@2@U?$less@I@2@V?$allocator@PAVMsgHandlerInterface@@@2@@std@@QBE_NABV012@@Z 0040a700 f i DxGuiFramework:DGWindow.obj
 0001:00009740       ??_9@$BMM@AE               0040a740 f i DxGuiFramework:DGWindow.obj
 0001:00009750       ??0DGMainWindow@@QAE@I_N@Z 0040a750 f   DxGuiFramework:DGMainWindow.obj
 0001:000097e0       ??_GDGMainWindow@@UAEPAXI@Z 0040a7e0 f i DxGuiFramework:DGMainWindow.obj
 0001:000097e0       ??_EDGMainWindow@@UAEPAXI@Z 0040a7e0 f i DxGuiFramework:DGMainWindow.obj
 0001:00009840       ??0DGMainWindow@@QAE@I_NVDGRectangle@@@Z 0040a840 f   DxGuiFramework:DGMainWindow.obj
 0001:000098e0       ??0DGMainWindow@@QAE@I_NVDGPoint@@1@Z 0040a8e0 f   DxGuiFramework:DGMainWindow.obj
 0001:00009970       ??0DGMainWindow@@QAE@I_NHHHH@Z 0040a970 f   DxGuiFramework:DGMainWindow.obj
 0001:00009a10       ??1DGMainWindow@@UAE@XZ    0040aa10 f   DxGuiFramework:DGMainWindow.obj
 0001:00009a50       ?SetPosition@DGMainWindow@@QAIXAAVDGPoint@@@Z 0040aa50 f   DxGuiFramework:DGMainWindow.obj
 0001:00009a90       ?SetPosition@DGMainWindow@@UAIXHH@Z 0040aa90 f   DxGuiFramework:DGMainWindow.obj
 0001:00009ad0       ?SetSize@DGMainWindow@@QAIXAAVDGPoint@@@Z 0040aad0 f   DxGuiFramework:DGMainWindow.obj
 0001:00009b30       ?SetSize@DGMainWindow@@UAIXHH@Z 0040ab30 f   DxGuiFramework:DGMainWindow.obj
 0001:00009b90       ?SetDimensions@DGMainWindow@@QAIXAAVDGArea@@@Z 0040ab90 f   DxGuiFramework:DGMainWindow.obj
 0001:00009bf0       ?SetDimensions@DGMainWindow@@QAIXAAVDGPoint@@0@Z 0040abf0 f   DxGuiFramework:DGMainWindow.obj
 0001:00009c50       ?SetDimensions@DGMainWindow@@UAIXHHHH@Z 0040ac50 f   DxGuiFramework:DGMainWindow.obj
 0001:00009cb0       ?HideWindow@DGMainWindow@@UAIXXZ 0040acb0 f   DxGuiFramework:DGMainWindow.obj
 0001:00009ce0       ?ShowWindow@DGMainWindow@@UAIXXZ 0040ace0 f   DxGuiFramework:DGMainWindow.obj
 0001:00009d10       ?OnWindowReposition@DGMainWindow@@UAIXHH@Z 0040ad10 f   DxGuiFramework:DGMainWindow.obj
 0001:00009d40       ?OnWindowResize@DGMainWindow@@UAIXHH@Z 0040ad40 f   DxGuiFramework:DGMainWindow.obj
 0001:00009d70       ??0DGArea@@QAE@AAVDGRectangle@@@Z 0040ad70 f i DxGuiFramework:DGMainWindow.obj
 0001:00009de0       ?Width@DGRectangle@@QAEHXZ 0040ade0 f i DxGuiFramework:DGMainWindow.obj
 0001:00009e20       ?Height@DGRectangle@@QAEHXZ 0040ae20 f i DxGuiFramework:DGMainWindow.obj
 0001:00009e60       ?GetResolution@DGGraphics@@QAEABVDGPoint@@XZ 0040ae60 f i DxGuiFramework:DGMainWindow.obj
 0001:00009e90       ?SetWindowType@DGWindow@@IAEXI@Z 0040ae90 f i DxGuiFramework:DGMainWindow.obj
 0001:00009ec0       ??0DGGui@@QAE@XZ           0040aec0 f   DxGuiFramework:DGGui.obj
 0001:00009f30       ??_EDGGui@@UAEPAXI@Z       0040af30 f i DxGuiFramework:DGGui.obj
 0001:00009f30       ??_GDGGui@@UAEPAXI@Z       0040af30 f i DxGuiFramework:DGGui.obj
 0001:00009f90       ??1DGGui@@UAE@XZ           0040af90 f   DxGuiFramework:DGGui.obj
 0001:0000a040       ?SetMainWindow@DGGui@@QAEXPAVDGMainWindow@@@Z 0040b040 f   DxGuiFramework:DGGui.obj
 0001:0000a160       ?PostMessageA@DGGui@@QAEXPAVDGMessage@@@Z 0040b160 f   DxGuiFramework:DGGui.obj
 0001:0000a1d0       ?SendMessageA@DGGui@@QAEXPAVDGMessage@@@Z 0040b1d0 f   DxGuiFramework:DGGui.obj
 0001:0000a280       ?GenerateMessages@DGGui@@QAEXXZ 0040b280 f   DxGuiFramework:DGGui.obj
 0001:0000ab80       ?DispatchMessages@DGGui@@QAEXXZ 0040bb80 f   DxGuiFramework:DGGui.obj
 0001:0000ac30       ?GetWindow@DGGui@@QAEPAVDGWindow@@I@Z 0040bc30 f   DxGuiFramework:DGGui.obj
 0001:0000ac70       ?SetWindowFocus@DGGui@@QAEXI@Z 0040bc70 f   DxGuiFramework:DGGui.obj
 0001:0000ad90       ?GetWindowFocus@DGGui@@QAEIXZ 0040bd90 f   DxGuiFramework:DGGui.obj
 0001:0000adc0       ?RemoveWindowFocus@DGGui@@QAEXXZ 0040bdc0 f   DxGuiFramework:DGGui.obj
 0001:0000ae80       ?SetMouseCapture@DGGui@@QAEXI@Z 0040be80 f   DxGuiFramework:DGGui.obj
 0001:0000aeb0       ?ReleaseMouseCapture@DGGui@@QAEXXZ 0040beb0 f   DxGuiFramework:DGGui.obj
 0001:0000aee0       ?GetMouseCapture@DGGui@@QAEIXZ 0040bee0 f   DxGuiFramework:DGGui.obj
 0001:0000af10       ?DrawGUI@DGGui@@QAEXXZ     0040bf10 f   DxGuiFramework:DGGui.obj
 0001:0000af60       ??0?$DGQueue@VDGMessage@@@@QAE@XZ 0040bf60 f i DxGuiFramework:DGGui.obj
 0001:0000afb0       ??1?$DGQueue@VDGMessage@@@@UAE@XZ 0040bfb0 f i DxGuiFramework:DGGui.obj
 0001:0000aff0       ?GetNumOfItems@?$DGLinkedList@VDGMessage@@@@QAEHXZ 0040bff0 f i DxGuiFramework:DGGui.obj
 0001:0000b020       ??_E?$DGQueue@VDGMessage@@@@UAEPAXI@Z 0040c020 f i DxGuiFramework:DGGui.obj
 0001:0000b020       ??_G?$DGQueue@VDGMessage@@@@UAEPAXI@Z 0040c020 f i DxGuiFramework:DGGui.obj
 0001:0000b080       ??0?$DGLinkedList@VDGMessage@@@@QAE@XZ 0040c080 f i DxGuiFramework:DGGui.obj
 0001:0000b0e0       ??1?$DGLinkedList@VDGMessage@@@@UAE@XZ 0040c0e0 f i DxGuiFramework:DGGui.obj
 0001:0000b140       ?Enqueue@?$DGQueue@VDGMessage@@@@QAEXPAVDGMessage@@H@Z 0040c140 f i DxGuiFramework:DGGui.obj
 0001:0000b180       ?Dequeue@?$DGQueue@VDGMessage@@@@QAEPAVDGMessage@@XZ 0040c180 f i DxGuiFramework:DGGui.obj
 0001:0000b1c0       ??_E?$DGLinkedList@VDGMessage@@@@UAEPAXI@Z 0040c1c0 f i DxGuiFramework:DGGui.obj
 0001:0000b1c0       ??_G?$DGLinkedList@VDGMessage@@@@UAEPAXI@Z 0040c1c0 f i DxGuiFramework:DGGui.obj
 0001:0000b220       ?Append@?$DGLinkedList@VDGMessage@@@@QAEXPAVDGMessage@@H@Z 0040c220 f i DxGuiFramework:DGGui.obj
 0001:0000b350       ?DeleteAll@?$DGLinkedList@VDGMessage@@@@QAEXXZ 0040c350 f i DxGuiFramework:DGGui.obj
 0001:0000b400       ?RemoveFirst@?$DGLinkedList@VDGMessage@@@@QAEPAVDGMessage@@XZ 0040c400 f i DxGuiFramework:DGGui.obj
 0001:0000b4a0       ?RemoveAll@?$DGLinkedList@VDGMessage@@@@QAEXXZ 0040c4a0 f i DxGuiFramework:DGGui.obj
 0001:0000b520       ??0?$DGNode@VDGMessage@@@@QAE@HPAVDGMessage@@PAV0@@Z 0040c520 f i DxGuiFramework:DGGui.obj
 0001:0000b570       ?EventsInQueue@DGInput@@QAI_NXZ 0040c570 f i DxGuiFramework:DGGui.obj
 0001:0000b5c0       ?GetNumOfItems@?$DGLinkedList@VInputEvent@@@@QAEHXZ 0040c5c0 f i DxGuiFramework:DGGui.obj
 0001:0000b5f0       ?DGGetApp@@YAPAVDGApplication@@XZ 0040c5f0 f   DxGuiFramework:DxGuiFramework.obj
 0001:0000b620       ?DGGetGraphics@@YAPAVDGGraphics@@XZ 0040c620 f   DxGuiFramework:DxGuiFramework.obj
 0001:0000b650       ?DGGetGui@@YAPAVDGGui@@XZ  0040c650 f   DxGuiFramework:DxGuiFramework.obj
 0001:0000b690       _WinMain@16                0040c690 f   DxGuiFramework:DxGuiFramework.obj
 0001:0000baf0       ?WindowsMessageFunction@@YGJPAUHWND__@@IIJ@Z 0040caf0 f   DxGuiFramework:DxGuiFramework.obj
 0001:0000bb40       ?HandleException@@YAXPAVDGException@@@Z 0040cb40 f   DxGuiFramework:DxGuiFramework.obj
 0001:0000bfa0       ?GetWindowsHandle@DGApplication@@QAEPAUHWND__@@XZ 0040cfa0 f i DxGuiFramework:DxGuiFramework.obj
 0001:0000bfd0       ?GetGui@DGApplication@@QAEPAVDGGui@@XZ 0040cfd0 f i DxGuiFramework:DxGuiFramework.obj
 0001:0000c000       ??0DGGraphics@@QAE@XZ      0040d000 f   DxGuiFramework:DGGraphics.obj
 0001:0000c3f0       ??_GDGGraphics@@UAEPAXI@Z  0040d3f0 f i DxGuiFramework:DGGraphics.obj
 0001:0000c3f0       ??_EDGGraphics@@UAEPAXI@Z  0040d3f0 f i DxGuiFramework:DGGraphics.obj
 0001:0000c450       ??1DGGraphics@@UAE@XZ      0040d450 f   DxGuiFramework:DGGraphics.obj
 0001:0000c5a0       ?SetResolution@DGGraphics@@QAEXVDGPoint@@@Z 0040d5a0 f   DxGuiFramework:DGGraphics.obj
 0001:0000c610       ?SetResolution@DGGraphics@@QAEXHH@Z 0040d610 f   DxGuiFramework:DGGraphics.obj
 0001:0000c690       ?SetWindowedState@DGGraphics@@QAEXI@Z 0040d690 f   DxGuiFramework:DGGraphics.obj
 0001:0000c700       ?SetColorDepth@DGGraphics@@QAEXI@Z 0040d700 f   DxGuiFramework:DGGraphics.obj
 0001:0000c770       ?SetBufferingMode@DGGraphics@@QAEXI@Z 0040d770 f   DxGuiFramework:DGGraphics.obj
 0001:0000c7e0       ?SetSurfacePersistence@DGGraphics@@QAEX_N@Z 0040d7e0 f   DxGuiFramework:DGGraphics.obj
 0001:0000c850       ?SetGraphicsMode@DGGraphics@@QAEXVDGPoint@@III_N@Z 0040d850 f   DxGuiFramework:DGGraphics.obj
 0001:0000d370       ?GetBitmap@DGGraphics@@QAIPAVDGBitmap@@I@Z 0040e370 f   DxGuiFramework:DGGraphics.obj
 0001:0000d3c0       ?LoadBitmapA@DGGraphics@@QAEXII@Z 0040e3c0 f   DxGuiFramework:DGGraphics.obj
 0001:0000d3f0       ?LoadBitmapA@DGGraphics@@QAEXIIPAD@Z 0040e3f0 f   DxGuiFramework:DGGraphics.obj
 0001:0000d4f0       ?LoadBitmapDimensions@DGGraphics@@QAEXIIAAVDGArea@@@Z 0040e4f0 f   DxGuiFramework:DGGraphics.obj
 0001:0000d520       ?LoadBitmapDimensions@DGGraphics@@QAEXIIAAVDGArea@@PAD@Z 0040e520 f   DxGuiFramework:DGGraphics.obj
 0001:0000d620       ?RemoveBitmap@DGGraphics@@QAEXI@Z 0040e620 f   DxGuiFramework:DGGraphics.obj
 0001:0000d670       ?RemoveAllBitmaps@DGGraphics@@QAEXXZ 0040e670 f   DxGuiFramework:DGGraphics.obj
 0001:0000d6b0       ?DeleteBitmap@DGGraphics@@QAEXI@Z 0040e6b0 f   DxGuiFramework:DGGraphics.obj
 0001:0000d700       ?DeleteAllBitmaps@DGGraphics@@QAEXXZ 0040e700 f   DxGuiFramework:DGGraphics.obj
 0001:0000d740       ?EnableAutoClean@DGGraphics@@QAEX_N00@Z 0040e740 f   DxGuiFramework:DGGraphics.obj
 0001:0000d790       ?CleanMaxBitmaps@DGGraphics@@QAEXXZ 0040e790 f   DxGuiFramework:DGGraphics.obj
 0001:0000d7f0       ?CleanMaxBitmapMemory@DGGraphics@@QAEXXZ 0040e7f0 f   DxGuiFramework:DGGraphics.obj
 0001:0000d850       ?CleanBitmap@DGGraphics@@QAEXI@Z 0040e850 f   DxGuiFramework:DGGraphics.obj
 0001:0000d8b0       ?CleanBitmapByPriority@DGGraphics@@QAEXI@Z 0040e8b0 f   DxGuiFramework:DGGraphics.obj
 0001:0000d900       ?CleanAllBitmapsByPriority@DGGraphics@@QAEXI@Z 0040e900 f   DxGuiFramework:DGGraphics.obj
 0001:0000d950       ?SetMaxBitmaps@DGGraphics@@QAEXI@Z 0040e950 f   DxGuiFramework:DGGraphics.obj
 0001:0000d990       ?SetMaxBitmapMemory@DGGraphics@@QAEXI@Z 0040e990 f   DxGuiFramework:DGGraphics.obj
 0001:0000d9d0       ?SetTransparentColor@DGGraphics@@QAEXIAAVDGColor@@@Z 0040e9d0 f   DxGuiFramework:DGGraphics.obj
 0001:0000da20       ?BeginFrame@DGGraphics@@QAEXXZ 0040ea20 f   DxGuiFramework:DGGraphics.obj
 0001:0000dab0       ?EndFrame@DGGraphics@@QAEXXZ 0040eab0 f   DxGuiFramework:DGGraphics.obj
 0001:0000daf0       ?LockSurface@DGGraphics@@QAIXXZ 0040eaf0 f   DxGuiFramework:DGGraphics.obj
 0001:0000dc70       ?UnlockSurface@DGGraphics@@QAIXXZ 0040ec70 f   DxGuiFramework:DGGraphics.obj
 0001:0000dcf0       ?FlipSurface@DGGraphics@@QAIXXZ 0040ecf0 f   DxGuiFramework:DGGraphics.obj
 0001:0000de80       ?SetPixel@DGGraphics@@QAIXHHAAVDGColor@@@Z 0040ee80 f   DxGuiFramework:DGGraphics.obj
 0001:0000dff0       ?DrawHorizontalLine@DGGraphics@@QAIXHHHAAVDGColor@@@Z 0040eff0 f   DxGuiFramework:DGGraphics.obj
 0001:0000e200       ?DrawVerticalLine@DGGraphics@@QAIXHHHAAVDGColor@@@Z 0040f200 f   DxGuiFramework:DGGraphics.obj
 0001:0000e430       ?DrawLine@DGGraphics@@QAIXAAVDGPoint@@0AAVDGColor@@@Z 0040f430 f   DxGuiFramework:DGGraphics.obj
 0001:0000e8b0       ?DrawRectangle@DGGraphics@@QAIXAAVDGRectangle@@AAVDGColor@@@Z 0040f8b0 f   DxGuiFramework:DGGraphics.obj
 0001:0000ee50       ??0DGRectangle@@QAE@XZ     0040fe50 f i DxGuiFramework:DGGraphics.obj
 0001:0000eea0       ?DrawFilledRectangle@DGGraphics@@QAIXAAVDGRectangle@@AAVDGColor@@@Z 0040fea0 f   DxGuiFramework:DGGraphics.obj
 0001:0000f1d0       ?FillArea@DGGraphics@@QAIXAAVDGArea@@AAVDGColor@@@Z 004101d0 f   DxGuiFramework:DGGraphics.obj
 0001:0000f3b0       ?ToRECT@DGArea@@QAE?AUtagRECT@@XZ 004103b0 f i DxGuiFramework:DGGraphics.obj
 0001:0000f430       ?FillScreen@DGGraphics@@QAIXAAVDGColor@@@Z 00410430 f   DxGuiFramework:DGGraphics.obj
 0001:0000f550       ??0DGException@@QAE@PADII0H@Z 00410550 f i DxGuiFramework:DGGraphics.obj
 0001:0000f5d0       ?DrawBitmap@DGGraphics@@QAIXAAVDGPoint@@I@Z 004105d0 f   DxGuiFramework:DGGraphics.obj
 0001:0000f7c0       ??0DGColor@@QAE@XZ         004107c0 f i DxGuiFramework:DGGraphics.obj
 0001:0000f800       ?To16Bit@DGColor@@QAEGXZ   00410800 f i DxGuiFramework:DGGraphics.obj
 0001:0000f870       ?To24Bit@DGColor@@QAEIXZ   00410870 f i DxGuiFramework:DGGraphics.obj
 0001:0000f8d0       ?To32Bit@DGColor@@QAEIXZ   004108d0 f i DxGuiFramework:DGGraphics.obj
 0001:0000f930       ?DrawScaledBitmap@DGGraphics@@QAIXAAVDGArea@@I@Z 00410930 f   DxGuiFramework:DGGraphics.obj
 0001:0000fb00       ??0DGDisplayModeList@@QAE@XZ 00410b00 f i DxGuiFramework:DGGraphics.obj
 0001:0000fb50       ??1DGDisplayModeList@@UAE@XZ 00410b50 f i DxGuiFramework:DGGraphics.obj
 0001:0000fb90       ??_GDGDisplayModeList@@UAEPAXI@Z 00410b90 f i DxGuiFramework:DGGraphics.obj
 0001:0000fb90       ??_EDGDisplayModeList@@UAEPAXI@Z 00410b90 f i DxGuiFramework:DGGraphics.obj
 0001:0000fbf0       ?DrawTransparentBitmap@DGGraphics@@QAIXAAVDGPoint@@IAAVDGColor@@@Z 00410bf0 f   DxGuiFramework:DGGraphics.obj
 0001:0000fe70       ?GetWidth@DGBitmap@@QAEHXZ 00410e70 f i DxGuiFramework:DGGraphics.obj
 0001:0000fea0       ?GetHeight@DGBitmap@@QAEHXZ 00410ea0 f i DxGuiFramework:DGGraphics.obj
 0001:0000fed0       ??1DGBitmapList@@UAE@XZ    00410ed0 f i DxGuiFramework:DGGraphics.obj
 0001:0000ff10       ?GetTotalMemory@DGBitmapList@@QAEIXZ 00410f10 f i DxGuiFramework:DGGraphics.obj
 0001:0000ff40       ?GetNumOfLoadedBitmaps@DGBitmapList@@QAEIXZ 00410f40 f i DxGuiFramework:DGGraphics.obj
 0001:0000ff70       ?DrawTransparentScaledBitmap@DGGraphics@@QAIXAAVDGArea@@IAAVDGColor@@@Z 00410f70 f   DxGuiFramework:DGGraphics.obj
 0001:000101d0       ??_GDGBitmapList@@UAEPAXI@Z 004111d0 f i DxGuiFramework:DGGraphics.obj
 0001:000101d0       ??_EDGBitmapList@@UAEPAXI@Z 004111d0 f i DxGuiFramework:DGGraphics.obj
 0001:00010230       ?DrawTransparentBitmap@DGGraphics@@QAIXAAVDGPoint@@I@Z 00411230 f   DxGuiFramework:DGGraphics.obj
 0001:00010420       ?DrawTransparentScaledBitmap@DGGraphics@@QAIXAAVDGArea@@I@Z 00411420 f   DxGuiFramework:DGGraphics.obj
 0001:000105f0       ?FlipToGDISurface@DGGraphics@@QAEXXZ 004115f0 f   DxGuiFramework:DGGraphics.obj
 0001:00010640       ?SetGDIFont@DGGraphics@@QAIXAAVDGFont@@@Z 00411640 f   DxGuiFramework:DGGraphics.obj
 0001:00010690       ?SetTextTransparency@DGGraphics@@QAIXH@Z 00411690 f   DxGuiFramework:DGGraphics.obj
 0001:00010700       ?SetTextColor@DGGraphics@@QAIXAAVDGColor@@@Z 00411700 f   DxGuiFramework:DGGraphics.obj
 0001:00010740       ?SetTextBackgroundColor@DGGraphics@@QAIXAAVDGColor@@@Z 00411740 f   DxGuiFramework:DGGraphics.obj
 0001:00010780       ?DrawTextA@DGGraphics@@QAIXPADAAVDGRectangle@@I@Z 00411780 f   DxGuiFramework:DGGraphics.obj
 0001:00010a30       ?SetRectangle@DGRectangle@@QAEXHHHH@Z 00411a30 f i DxGuiFramework:DGGraphics.obj
 0001:00010a80       ?ToRECT@DGRectangle@@QAE?AUtagRECT@@XZ 00411a80 f i DxGuiFramework:DGGraphics.obj
 0001:00010af0       ?ToCOLORREF@DGColor@@QAEKXZ 00411af0 f i DxGuiFramework:DGGraphics.obj
 0001:00010b40       ?GetFontHandle@DGFont@@QAEPAUHFONT__@@XZ 00411b40 f i DxGuiFramework:DGGraphics.obj
 0001:00010b70       ?AddClippingArea@DGGraphics@@QAIXAAVDGRectangle@@@Z 00411b70 f   DxGuiFramework:DGGraphics.obj
 0001:00010d20       ?RemoveClippingArea@DGGraphics@@QAIXXZ 00411d20 f   DxGuiFramework:DGGraphics.obj
 0001:00010d80       ?ClearClippingAreas@DGGraphics@@QAIXXZ 00411d80 f   DxGuiFramework:DGGraphics.obj
 0001:00010dc0       ?GetSurface@DGGraphics@@QAIPAVDGSurface@@AAVDGArea@@@Z 00411dc0 f   DxGuiFramework:DGGraphics.obj
 0001:00010eb0       ?ReleaseSurface@DGGraphics@@QAIXPAVDGSurface@@@Z 00411eb0 f   DxGuiFramework:DGGraphics.obj
 0001:00010f40       ?RestoreAllSurfaces@DGGraphics@@AAIXXZ 00411f40 f   DxGuiFramework:DGGraphics.obj
 0001:00011040       ?DestroyAllSurfaces@DGGraphics@@AAIXXZ 00412040 f   DxGuiFramework:DGGraphics.obj
 0001:00011180       ?ClearPrimarySurface@DGGraphics@@AAIXXZ 00412180 f   DxGuiFramework:DGGraphics.obj
 0001:00011250       ?HandleDDrawError@DGGraphics@@QAEXIJPADI@Z 00412250 f   DxGuiFramework:DGGraphics.obj
 0001:00012480       ?EnumDisplayModes@@YGJPAU_DDSURFACEDESC2@@PAX@Z 00413480 f   DxGuiFramework:DGGraphics.obj
 0001:00012540       ??0DGDisplayMode@@QAE@HHH@Z 00413540 f i DxGuiFramework:DGGraphics.obj
 0001:00012590       ?SetDestroy@?$DGLinkedList@VDGBitmap@@@@QAEX_N@Z 00413590 f i DxGuiFramework:DGGraphics.obj
 0001:000125c0       ??0?$DGLinkedList@VDGDisplayMode@@@@QAE@XZ 004135c0 f i DxGuiFramework:DGGraphics.obj
 0001:00012620       ??1?$DGLinkedList@VDGDisplayMode@@@@UAE@XZ 00413620 f i DxGuiFramework:DGGraphics.obj
 0001:00012680       ?Insert@?$DGLinkedList@VDGDisplayMode@@@@QAEXPAVDGDisplayMode@@H@Z 00413680 f i DxGuiFramework:DGGraphics.obj
 0001:00012750       ??1?$DGLinkedList@VDGBitmap@@@@UAE@XZ 00413750 f i DxGuiFramework:DGGraphics.obj
 0001:000127b0       ?GetItemById@?$DGLinkedList@VDGBitmap@@@@QAEPAVDGBitmap@@H@Z 004137b0 f i DxGuiFramework:DGGraphics.obj
 0001:00012820       ??_G?$DGLinkedList@VDGDisplayMode@@@@UAEPAXI@Z 00413820 f i DxGuiFramework:DGGraphics.obj
 0001:00012820       ??_E?$DGLinkedList@VDGDisplayMode@@@@UAEPAXI@Z 00413820 f i DxGuiFramework:DGGraphics.obj
 0001:00012880       ??_G?$DGLinkedList@VDGBitmap@@@@UAEPAXI@Z 00413880 f i DxGuiFramework:DGGraphics.obj
 0001:00012880       ??_E?$DGLinkedList@VDGBitmap@@@@UAEPAXI@Z 00413880 f i DxGuiFramework:DGGraphics.obj
 0001:000128e0       ??0?$DGNode@VDGDisplayMode@@@@QAE@HPAVDGDisplayMode@@PAV0@@Z 004138e0 f i DxGuiFramework:DGGraphics.obj
 0001:00012930       ?DeleteAll@?$DGLinkedList@VDGDisplayMode@@@@QAEXXZ 00413930 f i DxGuiFramework:DGGraphics.obj
 0001:000129c0       ?RemoveAll@?$DGLinkedList@VDGDisplayMode@@@@QAEXXZ 004139c0 f i DxGuiFramework:DGGraphics.obj
 0001:00012a40       ?DeleteAll@?$DGLinkedList@VDGBitmap@@@@QAEXXZ 00413a40 f i DxGuiFramework:DGGraphics.obj
 0001:00012af0       ?RemoveAll@?$DGLinkedList@VDGBitmap@@@@QAEXXZ 00413af0 f i DxGuiFramework:DGGraphics.obj
 0001:00012b70       ??0DGSurface@@QAE@AAVDGArea@@@Z 00413b70 f   DxGuiFramework:DGSurface.obj
 0001:00012c00       ??_GDGSurface@@UAEPAXI@Z   00413c00 f i DxGuiFramework:DGSurface.obj
 0001:00012c00       ??_EDGSurface@@UAEPAXI@Z   00413c00 f i DxGuiFramework:DGSurface.obj
 0001:00012c60       ??1DGSurface@@UAE@XZ       00413c60 f   DxGuiFramework:DGSurface.obj
 0001:00012cc0       ?SetWindowOrg@DGSurface@@QAEXVDGPoint@@@Z 00413cc0 f   DxGuiFramework:DGSurface.obj
 0001:00012d40       ?RemoveWindowOrg@DGSurface@@QAEXXZ 00413d40 f   DxGuiFramework:DGSurface.obj
 0001:00012da0       ?SetPixel@DGSurface@@QAIXHHAAVDGColor@@@Z 00413da0 f   DxGuiFramework:DGSurface.obj
 0001:00012e60       ?DrawHorizontalLine@DGSurface@@QAIXHHHAAVDGColor@@@Z 00413e60 f   DxGuiFramework:DGSurface.obj
 0001:00012fe0       ?DrawVerticalLine@DGSurface@@QAIXHHHAAVDGColor@@@Z 00413fe0 f   DxGuiFramework:DGSurface.obj
 0001:00013160       ?DrawLine@DGSurface@@QAIXVDGPoint@@0AAVDGColor@@@Z 00414160 f   DxGuiFramework:DGSurface.obj
 0001:00013680       ?DrawRectangle@DGSurface@@QAIXVDGRectangle@@AAVDGColor@@@Z 00414680 f   DxGuiFramework:DGSurface.obj
 0001:00013880       ?DrawFilledRectangle@DGSurface@@QAIXVDGRectangle@@AAVDGColor@@@Z 00414880 f   DxGuiFramework:DGSurface.obj
 0001:00013a50       ??0DGArea@@QAE@XZ          00414a50 f i DxGuiFramework:DGSurface.obj
 0001:00013aa0       ??0DGApplication@@QAE@XZ   00414aa0 f   DxGuiFramework:DGApplication.obj
 0001:00013c40       ??_EDGApplication@@UAEPAXI@Z 00414c40 f i DxGuiFramework:DGApplication.obj
 0001:00013c40       ??_GDGApplication@@UAEPAXI@Z 00414c40 f i DxGuiFramework:DGApplication.obj
 0001:00013ca0       ??1DGApplication@@UAE@XZ   00414ca0 f   DxGuiFramework:DGApplication.obj
 0001:00013d20       ?PreInitApp@DGApplication@@UAEXXZ 00414d20 f   DxGuiFramework:DGApplication.obj
 0001:00013d50       ?InitApp@DGApplication@@UAEXXZ 00414d50 f   DxGuiFramework:DGApplication.obj
 0001:00013dc0       ?DestroyApp@DGApplication@@UAEXXZ 00414dc0 f   DxGuiFramework:DGApplication.obj
 0001:00013df0       ?TerminateApp@DGApplication@@QAEXXZ 00414df0 f   DxGuiFramework:DGApplication.obj
 0001:00013e40       ?RunApp@DGApplication@@MAEXXZ 00414e40 f   DxGuiFramework:DGApplication.obj
 0001:000140c0       ?PreGUIMessage@DGApplication@@MAEXXZ 004150c0 f   DxGuiFramework:DGApplication.obj
 0001:000140f0       ?PreGUIDraw@DGApplication@@MAEXXZ 004150f0 f   DxGuiFramework:DGApplication.obj
 0001:00014120       ?PostGUIDraw@DGApplication@@MAEXXZ 00415120 f   DxGuiFramework:DGApplication.obj
 0001:00014150       ?HandleWindowsMessages@DGApplication@@EAEXXZ 00415150 f   DxGuiFramework:DGApplication.obj
 0001:000141d0       ?WindowsMessageFunction@DGApplication@@AAGJPAUHWND__@@IIJ@Z 004151d0 f   DxGuiFramework:DGApplication.obj
 0001:00014840       ?GetWindowedState@DGGraphics@@QAEIXZ 00415840 f i DxGuiFramework:DGApplication.obj
 0001:00014870       ?SetClientRect@DGGraphics@@QAEXAAUtagRECT@@@Z 00415870 f i DxGuiFramework:DGApplication.obj
 0001:000148c0       ?ClearEventQueue@DGInput@@QAIXXZ 004158c0 f i DxGuiFramework:DGApplication.obj
 0001:00014900       ?DeleteAll@?$DGLinkedList@VInputEvent@@@@QAEXXZ 00415900 f i DxGuiFramework:DGApplication.obj
 0001:00014990       ??0DGFont@@QAE@XZ          00415990 f   DxGuiFramework:DGFont.obj
 0001:00014b90       ??0DGFont@@QAE@PBDHH_N11@Z 00415b90 f   DxGuiFramework:DGFont.obj
 0001:00014d90       ??4DGFont@@QAEAAV0@AAV0@@Z 00415d90 f   DxGuiFramework:DGFont.obj
 0001:00014fb0       ??1DGFont@@UAE@XZ          00415fb0 f   DxGuiFramework:DGFont.obj
 0001:00015000       ??_EDGFont@@UAEPAXI@Z      00416000 f i DxGuiFramework:DGFont.obj
 0001:00015000       ??_GDGFont@@UAEPAXI@Z      00416000 f i DxGuiFramework:DGFont.obj
 0001:00015060       ??0DGTitleBar@@QAE@IPAVDGWindow@@HHHHPADVDGFont@@@Z 00416060 f   DxGuiFramework:DGTitleBar.obj
 0001:00015130       ??_EDGTitleBar@@UAEPAXI@Z  00416130 f i DxGuiFramework:DGTitleBar.obj
 0001:00015130       ??_GDGTitleBar@@UAEPAXI@Z  00416130 f i DxGuiFramework:DGTitleBar.obj
 0001:00015190       ??1DGButton@@UAE@XZ        00416190 f i DxGuiFramework:DGTitleBar.obj
 0001:00015210       ??1DGTitleBar@@UAE@XZ      00416210 f i DxGuiFramework:DGTitleBar.obj
 0001:00015250       ??0DGTitleBar@@QAE@IPAVDGWindow@@ABVDGArea@@PADVDGFont@@@Z 00416250 f   DxGuiFramework:DGTitleBar.obj
 0001:00015310       ??0DGTitleBar@@QAE@IPAVDGWindow@@ABVDGPoint@@1PADVDGFont@@@Z 00416310 f   DxGuiFramework:DGTitleBar.obj
 0001:000153e0       ?OnCreate@DGTitleBar@@MAIXXZ 004163e0 f   DxGuiFramework:DGTitleBar.obj
 0001:00015420       ?OnLButtonDown@DGTitleBar@@MAIXHHPAE@Z 00416420 f   DxGuiFramework:DGTitleBar.obj
 0001:000155a0       ?OnLButtonUp@DGTitleBar@@MAIXHHPAE@Z 004165a0 f   DxGuiFramework:DGTitleBar.obj
 0001:00015600       ?OnMouseMove@DGTitleBar@@MAIXHHPAE@Z 00416600 f   DxGuiFramework:DGTitleBar.obj
 0001:00015710       ??0DGFont@@QAE@ABV0@@Z     00416710 f i DxGuiFramework:DGTitleBar.obj
 0001:00015800       ?GetPressure@DGButton@@QAE_NXZ 00416800 f i DxGuiFramework:DGTitleBar.obj
 0001:00015830       ??0DGEdit@@QAE@IPAVDGWindow@@@Z 00416830 f   DxGuiFramework:DGEdit.obj
 0001:00015920       ??_EDGEdit@@UAEPAXI@Z      00416920 f i DxGuiFramework:DGEdit.obj
 0001:00015920       ??_GDGEdit@@UAEPAXI@Z      00416920 f i DxGuiFramework:DGEdit.obj
 0001:00015980       ??1DGEdit@@UAE@XZ          00416980 f i DxGuiFramework:DGEdit.obj
 0001:00015a00       ??0DGEdit@@QAE@IPAVDGWindow@@HHHHPADVDGColor@@2VDGFont@@_N@Z 00416a00 f   DxGuiFramework:DGEdit.obj
 0001:00015b60       ??0DGEdit@@QAE@IPAVDGWindow@@ABVDGArea@@PADVDGColor@@3VDGFont@@_N@Z 00416b60 f   DxGuiFramework:DGEdit.obj
 0001:00015cc0       ??0DGEdit@@QAE@IPAVDGWindow@@ABVDGPoint@@1PADVDGColor@@3VDGFont@@_N@Z 00416cc0 f   DxGuiFramework:DGEdit.obj
 0001:00015e20       ?OnDrawWindow@DGEdit@@MAIXPAVDGWindowSurface@@@Z 00416e20 f   DxGuiFramework:DGEdit.obj
 0001:00016020       ?OnLButtonUp@DGEdit@@MAIXHHPAE@Z 00417020 f   DxGuiFramework:DGEdit.obj
 0001:00016070       ?OnLButtonDblClk@DGEdit@@MAIXHHPAE@Z 00417070 f   DxGuiFramework:DGEdit.obj
 0001:000160d0       ?OnCharacter@DGEdit@@MAIXDPAE@Z 004170d0 f   DxGuiFramework:DGEdit.obj
 0001:00016350       ?GetHeight@DGFont@@QAEHXZ  00417350 f i DxGuiFramework:DGEdit.obj
 0001:00016380       ?DrawVerticalLine@DGWindowSurface@@QAIXHHHAAVDGColor@@@Z 00417380 f i DxGuiFramework:DGEdit.obj
 0001:000163e0       ?SetGDIFont@DGWindowSurface@@QAIXAAVDGFont@@@Z 004173e0 f i DxGuiFramework:DGEdit.obj
 0001:00016420       ?SetGDIFont@DGSurface@@QAIXAAVDGFont@@@Z 00417420 f i DxGuiFramework:DGEdit.obj
 0001:00016460       ?SetTextColor@DGWindowSurface@@QAIXAAVDGColor@@@Z 00417460 f i DxGuiFramework:DGEdit.obj
 0001:000164a0       ?SetTextColor@DGSurface@@QAIXAAVDGColor@@@Z 004174a0 f i DxGuiFramework:DGEdit.obj
 0001:000164e0       ?DrawTextA@DGWindowSurface@@QAIXPADAAVDGRectangle@@I@Z 004174e0 f i DxGuiFramework:DGEdit.obj
 0001:00016570       ?DrawTextA@DGSurface@@QAIXPADAAVDGRectangle@@I@Z 00417570 f i DxGuiFramework:DGEdit.obj
 0001:00016600       ??0DGImage@@QAE@IPAVDGWindow@@HHHHI_NVDGColor@@1@Z 00417600 f   DxGuiFramework:DGImage.obj
 0001:00016720       ??_EDGImage@@UAEPAXI@Z     00417720 f i DxGuiFramework:DGImage.obj
 0001:00016720       ??_GDGImage@@UAEPAXI@Z     00417720 f i DxGuiFramework:DGImage.obj
 0001:00016780       ??1DGImage@@UAE@XZ         00417780 f i DxGuiFramework:DGImage.obj
 0001:000167c0       ??0DGImage@@QAE@IPAVDGWindow@@ABVDGArea@@I_NVDGColor@@2@Z 004177c0 f   DxGuiFramework:DGImage.obj
 0001:000168d0       ??0DGImage@@QAE@IPAVDGWindow@@ABVDGPoint@@1I_NVDGColor@@2@Z 004178d0 f   DxGuiFramework:DGImage.obj
 0001:000169f0       ?LoadBitmapFile@DGImage@@QAEXPADH@Z 004179f0 f   DxGuiFramework:DGImage.obj
 0001:00016b40       ?SetTransparency@DGImage@@QAEX_N@Z 00417b40 f   DxGuiFramework:DGImage.obj
 0001:00016bb0       ?SetTransparentColor@DGImage@@QAEXVDGColor@@@Z 00417bb0 f   DxGuiFramework:DGImage.obj
 0001:00016c30       ?SetBitmapOrigin@DGImage@@QAEXVDGPoint@@@Z 00417c30 f   DxGuiFramework:DGImage.obj
 0001:00016c70       ?GetBitmapSize@DGImage@@QAE?AVDGPoint@@XZ 00417c70 f   DxGuiFramework:DGImage.obj
 0001:00016d00       ?OnDrawWindow@DGImage@@MAIXPAVDGWindowSurface@@@Z 00417d00 f   DxGuiFramework:DGImage.obj
 0001:00016dd0       ?OnLButtonDown@DGImage@@MAIXHHPAE@Z 00417dd0 f   DxGuiFramework:DGImage.obj
 0001:00016f30       ?OnLButtonUp@DGImage@@MAIXHHPAE@Z 00417f30 f   DxGuiFramework:DGImage.obj
 0001:00017090       ?OnLButtonDblClk@DGImage@@MAIXHHPAE@Z 00418090 f   DxGuiFramework:DGImage.obj
 0001:000171f0       ?OnMButtonDown@DGImage@@MAIXHHPAE@Z 004181f0 f   DxGuiFramework:DGImage.obj
 0001:00017350       ?OnMButtonUp@DGImage@@MAIXHHPAE@Z 00418350 f   DxGuiFramework:DGImage.obj
 0001:000174b0       ?OnMButtonDblClk@DGImage@@MAIXHHPAE@Z 004184b0 f   DxGuiFramework:DGImage.obj
 0001:00017610       ?OnRButtonDown@DGImage@@MAIXHHPAE@Z 00418610 f   DxGuiFramework:DGImage.obj
 0001:00017770       ?OnRButtonUp@DGImage@@MAIXHHPAE@Z 00418770 f   DxGuiFramework:DGImage.obj
 0001:000178d0       ?OnRButtonDblClk@DGImage@@MAIXHHPAE@Z 004188d0 f   DxGuiFramework:DGImage.obj
 0001:00017a30       ?OnMouseMove@DGImage@@MAIXHHPAE@Z 00418a30 f   DxGuiFramework:DGImage.obj
 0001:00017b90       ?DrawBitmap@DGWindowSurface@@QAIXVDGPoint@@I@Z 00418b90 f i DxGuiFramework:DGImage.obj
 0001:00017bf0       ?DrawBitmap@DGSurface@@QAIXVDGPoint@@I@Z 00418bf0 f i DxGuiFramework:DGImage.obj
 0001:00017c50       ?DrawTransparentBitmap@DGWindowSurface@@QAIXVDGPoint@@I@Z 00418c50 f i DxGuiFramework:DGImage.obj
 0001:00017cb0       ?DrawTransparentBitmap@DGSurface@@QAIXVDGPoint@@I@Z 00418cb0 f i DxGuiFramework:DGImage.obj
 0001:00017d10       ??0DGDebugLog@@QAE@XZ      00418d10 f   DxGuiFramework:DGDebugLog.obj
 0001:00017da0       ??_GDGDebugLog@@UAEPAXI@Z  00418da0 f i DxGuiFramework:DGDebugLog.obj
 0001:00017da0       ??_EDGDebugLog@@UAEPAXI@Z  00418da0 f i DxGuiFramework:DGDebugLog.obj
 0001:00017e00       ??_Dfstream@@QAEXXZ        00418e00 f i DxGuiFramework:DGDebugLog.obj
 0001:00017e50       ??0DGDebugLog@@QAE@PAD@Z   00418e50 f   DxGuiFramework:DGDebugLog.obj
 0001:00017ee0       ??1DGDebugLog@@UAE@XZ      00418ee0 f   DxGuiFramework:DGDebugLog.obj
 0001:00017f60       ?LogString@DGDebugLog@@QAEXPAD@Z 00418f60 f   DxGuiFramework:DGDebugLog.obj
 0001:00017fa0       ??0DGButton@@QAE@IPAVDGWindow@@@Z 00418fa0 f   DxGuiFramework:DGButton.obj
 0001:000180e0       ??_EDGButton@@UAEPAXI@Z    004190e0 f i DxGuiFramework:DGButton.obj
 0001:000180e0       ??_GDGButton@@UAEPAXI@Z    004190e0 f i DxGuiFramework:DGButton.obj
 0001:00018140       ??0DGButton@@QAE@IPAVDGWindow@@HHHHIPADVDGFont@@@Z 00419140 f   DxGuiFramework:DGButton.obj
 0001:000182b0       ??0DGButton@@QAE@IPAVDGWindow@@ABVDGArea@@IPADVDGFont@@@Z 004192b0 f   DxGuiFramework:DGButton.obj
 0001:00018410       ??0DGButton@@QAE@IPAVDGWindow@@ABVDGPoint@@1IPADVDGFont@@@Z 00419410 f   DxGuiFramework:DGButton.obj
 0001:00018570       ?SetFont@DGButton@@UAEXVDGFont@@@Z 00419570 f   DxGuiFramework:DGButton.obj
 0001:00018640       ?GetFont@DGButton@@QAE?AVDGFont@@XZ 00419640 f   DxGuiFramework:DGButton.obj
 0001:000186c0       ?SetText@DGButton@@UAEXPBD@Z 004196c0 f   DxGuiFramework:DGButton.obj
 0001:00018750       ?GetText@DGButton@@QAEQADXZ 00419750 f   DxGuiFramework:DGButton.obj
 0001:000187b0       ?SetState@DGButton@@QAEXI@Z 004197b0 f   DxGuiFramework:DGButton.obj
 0001:000187e0       ?SetType@DGButton@@QAEXI@Z 004197e0 f   DxGuiFramework:DGButton.obj
 0001:00018820       ?SetTextColor@DGButton@@QAEXAAVDGColor@@@Z 00419820 f   DxGuiFramework:DGButton.obj
 0001:000188a0       ?SetButtonColor@DGButton@@QAEXAAVDGColor@@@Z 004198a0 f   DxGuiFramework:DGButton.obj
 0001:000188e0       ?OnDrawWindow@DGButton@@MAIXPAVDGWindowSurface@@@Z 004198e0 f   DxGuiFramework:DGButton.obj
 0001:000189c0       ?OnCreate@DGButton@@MAIXXZ 004199c0 f   DxGuiFramework:DGButton.obj
 0001:00018cf0       ?OnLButtonDown@DGButton@@MAIXHHPAE@Z 00419cf0 f   DxGuiFramework:DGButton.obj
 0001:00018ef0       ?OnLButtonDblClk@DGButton@@MAIXHHPAE@Z 00419ef0 f   DxGuiFramework:DGButton.obj
 0001:00018f50       ?OnLButtonUp@DGButton@@MAIXHHPAE@Z 00419f50 f   DxGuiFramework:DGButton.obj
 0001:00019060       ?OnMouseLeave@DGButton@@MAIXHHPAE@Z 0041a060 f   DxGuiFramework:DGButton.obj
 0001:000190a0       ?OnWindowSizing@DGButton@@MAIXXZ 0041a0a0 f   DxGuiFramework:DGButton.obj
 0001:000190f0       ?OnWindowSized@DGButton@@MAIXXZ 0041a0f0 f   DxGuiFramework:DGButton.obj
 0001:00019170       ?OnChildWindowMessage@DGButton@@MAEXPAVDGMessage@@@Z 0041a170 f   DxGuiFramework:DGButton.obj
 0001:00019250       ?OnDrawNormal@DGButton@@MAIXPAVDGWindowSurface@@@Z 0041a250 f   DxGuiFramework:DGButton.obj
 0001:000193c0       ?OnDrawNormalDisabled@DGButton@@MAIXPAVDGWindowSurface@@@Z 0041a3c0 f   DxGuiFramework:DGButton.obj
 0001:000193f0       ?OnDrawDepressed@DGButton@@MAIXPAVDGWindowSurface@@@Z 0041a3f0 f   DxGuiFramework:DGButton.obj
 0001:00019550       ?OnDrawDepressedDisabled@DGButton@@MAIXPAVDGWindowSurface@@@Z 0041a550 f   DxGuiFramework:DGButton.obj
 0001:00019580       ??0?$MsgHandlerFunction@VDGButton@@@@QAE@PAVDGButton@@P81@AEXPAVDGMessage@@@Z@Z 0041a580 f i DxGuiFramework:DGButton.obj
 0001:000195e0       ??R?$MsgHandlerFunction@VDGButton@@@@UAEXPAVDGMessage@@@Z 0041a5e0 f i DxGuiFramework:DGButton.obj
 0001:00019630       ?Call@?$MsgHandlerFunction@VDGButton@@@@UAEXPAVDGMessage@@@Z 0041a630 f i DxGuiFramework:DGButton.obj
 0001:00019680       ??_9@$BNI@AE               0041a680 f i DxGuiFramework:DGButton.obj
 0001:00019690       ?DrawHorizontalLine@DGWindowSurface@@QAIXHHHAAVDGColor@@@Z 0041a690 f i DxGuiFramework:DGButton.obj
 0001:000196f0       ?SetForegroundColor@DGLabel@@QAEXVDGColor@@@Z 0041a6f0 f i DxGuiFramework:DGButton.obj
 0001:00019730       ?SetFont@DGLabel@@QAEXVDGFont@@@Z 0041a730 f i DxGuiFramework:DGButton.obj
 0001:000197b0       ?SetText@DGLabel@@QAEXPBD@Z 0041a7b0 f i DxGuiFramework:DGButton.obj
 0001:00019800       ??0DGLabel@@QAE@IPAVDGWindow@@@Z 0041a800 f   DxGuiFramework:DGLabel.obj
 0001:000198c0       ??_EDGLabel@@UAEPAXI@Z     0041a8c0 f i DxGuiFramework:DGLabel.obj
 0001:000198c0       ??_GDGLabel@@UAEPAXI@Z     0041a8c0 f i DxGuiFramework:DGLabel.obj
 0001:00019920       ??1DGLabel@@UAE@XZ         0041a920 f i DxGuiFramework:DGLabel.obj
 0001:000199a0       ??0DGLabel@@QAE@IPAVDGWindow@@HHHHPAD_NVDGColor@@3IVDGFont@@2@Z 0041a9a0 f   DxGuiFramework:DGLabel.obj
 0001:00019af0       ??0DGLabel@@QAE@IPAVDGWindow@@ABVDGArea@@PAD_NVDGColor@@4IVDGFont@@3@Z 0041aaf0 f   DxGuiFramework:DGLabel.obj
 0001:00019c30       ??0DGLabel@@QAE@IPAVDGWindow@@ABVDGPoint@@1PAD_NVDGColor@@4IVDGFont@@3@Z 0041ac30 f   DxGuiFramework:DGLabel.obj
 0001:00019d70       ?OnDrawWindow@DGLabel@@MAIXPAVDGWindowSurface@@@Z 0041ad70 f   DxGuiFramework:DGLabel.obj
 0001:00019e30       ?OnLButtonDown@DGLabel@@MAIXHHPAE@Z 0041ae30 f   DxGuiFramework:DGLabel.obj
 0001:00019f90       ?OnLButtonUp@DGLabel@@MAIXHHPAE@Z 0041af90 f   DxGuiFramework:DGLabel.obj
 0001:0001a0f0       ?OnLButtonDblClk@DGLabel@@MAIXHHPAE@Z 0041b0f0 f   DxGuiFramework:DGLabel.obj
 0001:0001a250       ?OnMButtonDown@DGLabel@@MAIXHHPAE@Z 0041b250 f   DxGuiFramework:DGLabel.obj
 0001:0001a3b0       ?OnMButtonUp@DGLabel@@MAIXHHPAE@Z 0041b3b0 f   DxGuiFramework:DGLabel.obj
 0001:0001a510       ?OnMButtonDblClk@DGLabel@@MAIXHHPAE@Z 0041b510 f   DxGuiFramework:DGLabel.obj
 0001:0001a670       ?OnRButtonDown@DGLabel@@MAIXHHPAE@Z 0041b670 f   DxGuiFramework:DGLabel.obj
 0001:0001a7d0       ?OnRButtonUp@DGLabel@@MAIXHHPAE@Z 0041b7d0 f   DxGuiFramework:DGLabel.obj
 0001:0001a930       ?OnRButtonDblClk@DGLabel@@MAIXHHPAE@Z 0041b930 f   DxGuiFramework:DGLabel.obj
 0001:0001aa90       ?OnMouseMove@DGLabel@@MAIXHHPAE@Z 0041ba90 f   DxGuiFramework:DGLabel.obj
 0001:0001abf0       ??0DGInput@@QAE@XZ         0041bbf0 f   DxGuiFramework:DGInput.obj
 0001:0001ac50       ??_EDGInput@@UAEPAXI@Z     0041bc50 f i DxGuiFramework:DGInput.obj
 0001:0001ac50       ??_GDGInput@@UAEPAXI@Z     0041bc50 f i DxGuiFramework:DGInput.obj
 0001:0001acb0       ??1DGInput@@UAE@XZ         0041bcb0 f   DxGuiFramework:DGInput.obj
 0001:0001ad10       ?CreateEventA@DGInput@@QAIXIIJPAE@Z 0041bd10 f   DxGuiFramework:DGInput.obj
 0001:0001add0       ?GetEvent@DGInput@@QAIPAVInputEvent@@XZ 0041bdd0 f   DxGuiFramework:DGInput.obj
 0001:0001ae10       ?RemoveEvent@DGInput@@QAIPAVInputEvent@@XZ 0041be10 f   DxGuiFramework:DGInput.obj
 0001:0001ae50       ??0?$DGQueue@VInputEvent@@@@QAE@XZ 0041be50 f i DxGuiFramework:DGInput.obj
 0001:0001aea0       ??1?$DGQueue@VInputEvent@@@@UAE@XZ 0041bea0 f i DxGuiFramework:DGInput.obj
 0001:0001aee0       ??_G?$DGQueue@VInputEvent@@@@UAEPAXI@Z 0041bee0 f i DxGuiFramework:DGInput.obj
 0001:0001aee0       ??_E?$DGQueue@VInputEvent@@@@UAEPAXI@Z 0041bee0 f i DxGuiFramework:DGInput.obj
 0001:0001af40       ??0?$DGLinkedList@VInputEvent@@@@QAE@XZ 0041bf40 f i DxGuiFramework:DGInput.obj
 0001:0001afa0       ??1?$DGLinkedList@VInputEvent@@@@UAE@XZ 0041bfa0 f i DxGuiFramework:DGInput.obj
 0001:0001b000       ?GetFirstItem@?$DGLinkedList@VInputEvent@@@@QAEPAVInputEvent@@XZ 0041c000 f i DxGuiFramework:DGInput.obj
 0001:0001b050       ?Enqueue@?$DGQueue@VInputEvent@@@@QAEXPAVInputEvent@@H@Z 0041c050 f i DxGuiFramework:DGInput.obj
 0001:0001b090       ?Dequeue@?$DGQueue@VInputEvent@@@@QAEPAVInputEvent@@XZ 0041c090 f i DxGuiFramework:DGInput.obj
 0001:0001b0d0       ??_E?$DGLinkedList@VInputEvent@@@@UAEPAXI@Z 0041c0d0 f i DxGuiFramework:DGInput.obj
 0001:0001b0d0       ??_G?$DGLinkedList@VInputEvent@@@@UAEPAXI@Z 0041c0d0 f i DxGuiFramework:DGInput.obj
 0001:0001b130       ?Append@?$DGLinkedList@VInputEvent@@@@QAEXPAVInputEvent@@H@Z 0041c130 f i DxGuiFramework:DGInput.obj
 0001:0001b260       ?RemoveFirst@?$DGLinkedList@VInputEvent@@@@QAEPAVInputEvent@@XZ 0041c260 f i DxGuiFramework:DGInput.obj
 0001:0001b300       ?RemoveAll@?$DGLinkedList@VInputEvent@@@@QAEXXZ 0041c300 f i DxGuiFramework:DGInput.obj
 0001:0001b380       ??0?$DGNode@VInputEvent@@@@QAE@HPAVInputEvent@@PAV0@@Z 0041c380 f i DxGuiFramework:DGInput.obj
 0001:0001b3d0       ??0InputEvent@@QAE@IIIPAE@Z 0041c3d0 f i DxGuiFramework:DGInput.obj
 0001:0001b440       ??0DGBitmapList@@QAE@XZ    0041c440 f   DxGuiFramework:DGBitmapList.obj
 0001:0001b4b0       ??0DGBitmapList@@QAE@_N@Z  0041c4b0 f   DxGuiFramework:DGBitmapList.obj
 0001:0001b520       ?RemoveFirstBitmapByPriority@DGBitmapList@@QAEXI@Z 0041c520 f   DxGuiFramework:DGBitmapList.obj
 0001:0001b5f0       ?RemoveAllBitmapsByPriority@DGBitmapList@@QAEXI@Z 0041c5f0 f   DxGuiFramework:DGBitmapList.obj
 0001:0001b6b0       ?RemoveFirstLowestPriorityBitmap@DGBitmapList@@QAEXXZ 0041c6b0 f   DxGuiFramework:DGBitmapList.obj
 0001:0001b780       ?RemoveAllLowestPriorityBitmaps@DGBitmapList@@QAEXXZ 0041c780 f   DxGuiFramework:DGBitmapList.obj
 0001:0001b840       ?RemoveAllBitmaps@DGBitmapList@@QAEXXZ 0041c840 f   DxGuiFramework:DGBitmapList.obj
 0001:0001b8e0       ?RestoreBitmaps@DGBitmapList@@QAEXXZ 0041c8e0 f   DxGuiFramework:DGBitmapList.obj
 0001:0001b970       ?ProcessNewPriority@DGBitmapList@@AAEXI@Z 0041c970 f   DxGuiFramework:DGBitmapList.obj
 0001:0001b9c0       ?UpdatePriorities@DGBitmapList@@AAEXXZ 0041c9c0 f   DxGuiFramework:DGBitmapList.obj
 0001:0001baa0       ?UpdateLoadedBitmaps@DGBitmapList@@AAEXXZ 0041caa0 f   DxGuiFramework:DGBitmapList.obj
 0001:0001bb40       ?Insert@DGBitmapList@@QAEXPAVDGBitmap@@H@Z 0041cb40 f   DxGuiFramework:DGBitmapList.obj
 0001:0001bbc0       ?Append@DGBitmapList@@QAEXPAVDGBitmap@@H@Z 0041cbc0 f   DxGuiFramework:DGBitmapList.obj
 0001:0001bc40       ?InsertAtPosition@DGBitmapList@@QAEXHPAVDGBitmap@@H@Z 0041cc40 f   DxGuiFramework:DGBitmapList.obj
 0001:0001bcc0       ?DeleteByIndex@DGBitmapList@@QAEXH@Z 0041ccc0 f   DxGuiFramework:DGBitmapList.obj
 0001:0001bd10       ?DeleteById@DGBitmapList@@QAEXH@Z 0041cd10 f   DxGuiFramework:DGBitmapList.obj
 0001:0001bd60       ?DeleteFirst@DGBitmapList@@QAEXXZ 0041cd60 f   DxGuiFramework:DGBitmapList.obj
 0001:0001bdb0       ?DeleteLast@DGBitmapList@@QAEXXZ 0041cdb0 f   DxGuiFramework:DGBitmapList.obj
 0001:0001be00       ?DeleteAll@DGBitmapList@@QAEXXZ 0041ce00 f   DxGuiFramework:DGBitmapList.obj
 0001:0001be60       ?RemoveByIndex@DGBitmapList@@QAEPAVDGBitmap@@H@Z 0041ce60 f   DxGuiFramework:DGBitmapList.obj
 0001:0001bed0       ?RemoveById@DGBitmapList@@QAEPAVDGBitmap@@H@Z 0041ced0 f   DxGuiFramework:DGBitmapList.obj
 0001:0001bf40       ?RemoveFirst@DGBitmapList@@QAEPAVDGBitmap@@XZ 0041cf40 f   DxGuiFramework:DGBitmapList.obj
 0001:0001bfb0       ?RemoveLast@DGBitmapList@@QAEPAVDGBitmap@@XZ 0041cfb0 f   DxGuiFramework:DGBitmapList.obj
 0001:0001c020       ?RemoveAll@DGBitmapList@@QAEXXZ 0041d020 f   DxGuiFramework:DGBitmapList.obj
 0001:0001c080       ??0?$DGLinkedList@VDGBitmap@@@@QAE@_N@Z 0041d080 f i DxGuiFramework:DGBitmapList.obj
 0001:0001c0e0       ??0?$DGLinkedList@VDGBitmap@@@@QAE@XZ 0041d0e0 f i DxGuiFramework:DGBitmapList.obj
 0001:0001c140       ?Insert@?$DGLinkedList@VDGBitmap@@@@QAEXPAVDGBitmap@@H@Z 0041d140 f i DxGuiFramework:DGBitmapList.obj
 0001:0001c210       ?Append@?$DGLinkedList@VDGBitmap@@@@QAEXPAVDGBitmap@@H@Z 0041d210 f i DxGuiFramework:DGBitmapList.obj
 0001:0001c340       ?InsertAtPosition@?$DGLinkedList@VDGBitmap@@@@QAEXHPAVDGBitmap@@H@Z 0041d340 f i DxGuiFramework:DGBitmapList.obj
 0001:0001c490       ?DeleteByIndex@?$DGLinkedList@VDGBitmap@@@@QAEXH@Z 0041d490 f i DxGuiFramework:DGBitmapList.obj
 0001:0001c5c0       ?DeleteById@?$DGLinkedList@VDGBitmap@@@@QAEXH@Z 0041d5c0 f i DxGuiFramework:DGBitmapList.obj
 0001:0001c7a0       ?DeleteFirst@?$DGLinkedList@VDGBitmap@@@@QAEXXZ 0041d7a0 f i DxGuiFramework:DGBitmapList.obj
 0001:0001c860       ?DeleteLast@?$DGLinkedList@VDGBitmap@@@@QAEXXZ 0041d860 f i DxGuiFramework:DGBitmapList.obj
 0001:0001c8a0       ?RemoveByIndex@?$DGLinkedList@VDGBitmap@@@@QAEPAVDGBitmap@@H@Z 0041d8a0 f i DxGuiFramework:DGBitmapList.obj
 0001:0001c9b0       ?RemoveById@?$DGLinkedList@VDGBitmap@@@@QAEPAVDGBitmap@@H@Z 0041d9b0 f i DxGuiFramework:DGBitmapList.obj
 0001:0001cb30       ?RemoveFirst@?$DGLinkedList@VDGBitmap@@@@QAEPAVDGBitmap@@XZ 0041db30 f i DxGuiFramework:DGBitmapList.obj
 0001:0001cbd0       ?RemoveLast@?$DGLinkedList@VDGBitmap@@@@QAEPAVDGBitmap@@XZ 0041dbd0 f i DxGuiFramework:DGBitmapList.obj
 0001:0001cc10       ??0?$DGNode@VDGBitmap@@@@QAE@HPAVDGBitmap@@PAV0@@Z 0041dc10 f i DxGuiFramework:DGBitmapList.obj
 0001:0001cc60       ?GetPriority@DGBitmap@@QAEIXZ 0041dc60 f i DxGuiFramework:DGBitmapList.obj
 0001:0001cc90       ?IsLoaded@DGBitmap@@QAE_NXZ 0041dc90 f i DxGuiFramework:DGBitmapList.obj
 0001:0001ccc0       ?Opposite@DGColor@@QAE?AV1@XZ 0041dcc0 f   DxGuiFramework:DGColor.obj
 0001:0001cd30       ?Lighten@DGColor@@QAE?AV1@E@Z 0041dd30 f   DxGuiFramework:DGColor.obj
 0001:0001ce80       ?Darken@DGColor@@QAE?AV1@E@Z 0041de80 f   DxGuiFramework:DGColor.obj
 0001:0001cfd0       ?CreateLookupTables@DGColor@@SAXAAU_DDPIXELFORMAT@@I@Z 0041dfd0 f   DxGuiFramework:DGColor.obj
 0001:0001d370       ?Create16BitLookupTable@DGColor@@SAXKPAG@Z 0041e370 f   DxGuiFramework:DGColor.obj
 0001:0001d410       ?Create24Or32BitLookupTable@DGColor@@SAXKPAI@Z 0041e410 f   DxGuiFramework:DGColor.obj
 0001:0001d4b0       ?DisplayModeSupported@DGDisplayModeList@@QAE_NHHH@Z 0041e4b0 f   DxGuiFramework:DGDisplayModeList.obj
 0001:0001d560       ??0DGBitmap@@QAE@XZ        0041e560 f   DxGuiFramework:DGBitmap.obj
 0001:0001d630       ??_EDGBitmap@@UAEPAXI@Z    0041e630 f i DxGuiFramework:DGBitmap.obj
 0001:0001d630       ??_GDGBitmap@@UAEPAXI@Z    0041e630 f i DxGuiFramework:DGBitmap.obj
 0001:0001d690       ??0DGBitmap@@QAE@II@Z      0041e690 f   DxGuiFramework:DGBitmap.obj
 0001:0001d760       ??0DGBitmap@@QAE@III@Z     0041e760 f   DxGuiFramework:DGBitmap.obj
 0001:0001d7c0       ??0DGBitmap@@QAE@IIIAAVDGArea@@@Z 0041e7c0 f   DxGuiFramework:DGBitmap.obj
 0001:0001d820       ??0DGBitmap@@QAE@IIPAD@Z   0041e820 f   DxGuiFramework:DGBitmap.obj
 0001:0001d8b0       ??0DGBitmap@@QAE@IIPADAAVDGArea@@@Z 0041e8b0 f   DxGuiFramework:DGBitmap.obj
 0001:0001d950       ??1DGBitmap@@UAE@XZ        0041e950 f   DxGuiFramework:DGBitmap.obj
 0001:0001d9c0       ?GetDDSurface@DGBitmap@@QAEPAUIDirectDrawSurface7@@XZ 0041e9c0 f   DxGuiFramework:DGBitmap.obj
 0001:0001da10       ?SetTransparentColor@DGBitmap@@QAIXAAVDGColor@@@Z 0041ea10 f   DxGuiFramework:DGBitmap.obj
 0001:0001db60       ?LoadBitmapA@DGBitmap@@QAIXI@Z 0041eb60 f   DxGuiFramework:DGBitmap.obj
 0001:0001db90       ?LoadBitmapA@DGBitmap@@QAIXIAAVDGArea@@@Z 0041eb90 f   DxGuiFramework:DGBitmap.obj
 0001:0001dbc0       ?LoadBitmapA@DGBitmap@@QAIXPAD@Z 0041ebc0 f   DxGuiFramework:DGBitmap.obj
 0001:0001dd90       ?LoadBitmapA@DGBitmap@@QAIXPADAAVDGArea@@@Z 0041ed90 f   DxGuiFramework:DGBitmap.obj
 0001:0001e000       ?DestroyBitmap@DGBitmap@@QAIXXZ 0041f000 f   DxGuiFramework:DGBitmap.obj
 0001:0001e080       ?ReloadBitmap@DGBitmap@@QAIXXZ 0041f080 f   DxGuiFramework:DGBitmap.obj
 0001:0001e160       ?RestoreBitmap@DGBitmap@@QAIXXZ 0041f160 f   DxGuiFramework:DGBitmap.obj
 0001:0001e210       ?LoadBitmapFromFile@DGBitmap@@AAEXAAVDGArea@@PAD@Z 0041f210 f   DxGuiFramework:DGBitmap.obj
 0001:0001ea50       ?fail@ios@@QBEHXZ          0041fa50 f i DxGuiFramework:DGBitmap.obj
 0001:0001ea80       ?ignore@istream@@QAEAAV1@HH@Z 0041fa80 f i DxGuiFramework:DGBitmap.obj
 0001:0001eb00       ?lock@ios@@QAAXXZ          0041fb00 f i DxGuiFramework:DGBitmap.obj
 0001:0001eb20       ?unlock@ios@@QAAXXZ        0041fb20 f i DxGuiFramework:DGBitmap.obj
 0001:0001eb40       ?read@istream@@QAEAAV1@PAEH@Z 0041fb40 f i DxGuiFramework:DGBitmap.obj
 0001:0001eb80       ?FindBitmapSize@DGBitmap@@AAE?AVDGPoint@@PAD@Z 0041fb80 f   DxGuiFramework:DGBitmap.obj
 0001:0001ede0       ?SetColor@DGColor@@QAEXEEE@Z 0041fde0 f i DxGuiFramework:DGBitmap.obj
 0001:0001ee20       _DirectDrawCreateEx@16     0041fe20 f   ddraw:DDRAW.dll
 0001:0001ee26       _OutputDebugStringA@4      0041fe26 f   kernel32:KERNEL32.dll
 0001:0001ee2c       _Sleep@4                   0041fe2c f   kernel32:KERNEL32.dll
 0001:0001ee32       _GetTickCount@0            0041fe32 f   kernel32:KERNEL32.dll
 0001:0001ee38       _CreateWindowExA@48        0041fe38 f   user32:USER32.dll
 0001:0001ee3e       _RegisterClassExA@4        0041fe3e f   user32:USER32.dll
 0001:0001ee44       _MessageBoxA@16            0041fe44 f   user32:USER32.dll
 0001:0001ee4a       _SetWindowPos@28           0041fe4a f   user32:USER32.dll
 0001:0001ee50       _GetSystemMetrics@4        0041fe50 f   user32:USER32.dll
 0001:0001ee56       _SetWindowLongA@12         0041fe56 f   user32:USER32.dll
 0001:0001ee5c       _ReleaseDC@8               0041fe5c f   user32:USER32.dll
 0001:0001ee62       _GetDC@4                   0041fe62 f   user32:USER32.dll
 0001:0001ee68       _GetDesktopWindow@0        0041fe68 f   user32:USER32.dll
 0001:0001ee6e       _IsIconic@4                0041fe6e f   user32:USER32.dll
 0001:0001ee74       _DrawTextA@20              0041fe74 f   user32:USER32.dll
 0001:0001ee7a       _LoadCursorA@8             0041fe7a f   user32:USER32.dll
 0001:0001ee80       _LoadIconA@8               0041fe80 f   user32:USER32.dll
 0001:0001ee86       _DispatchMessageA@4        0041fe86 f   user32:USER32.dll
 0001:0001ee8c       _TranslateMessage@4        0041fe8c f   user32:USER32.dll
 0001:0001ee92       _PeekMessageA@20           0041fe92 f   user32:USER32.dll
 0001:0001ee98       _PostMessageA@16           0041fe98 f   user32:USER32.dll
 0001:0001ee9e       _GetKeyboardState@4        0041fe9e f   user32:USER32.dll
 0001:0001eea4       _ClientToScreen@8          0041fea4 f   user32:USER32.dll
 0001:0001eeaa       _GetClientRect@8           0041feaa f   user32:USER32.dll
 0001:0001eeb0       _DefWindowProcA@16         0041feb0 f   user32:USER32.dll
 0001:0001eeb6       _GetDeviceCaps@8           0041feb6 f   gdi32:GDI32.dll
 0001:0001eebc       _DeleteObject@4            0041febc f   gdi32:GDI32.dll
 0001:0001eec2       _SelectObject@8            0041fec2 f   gdi32:GDI32.dll
 0001:0001eec8       _SetBkMode@8               0041fec8 f   gdi32:GDI32.dll
 0001:0001eece       _SetBkColor@8              0041fece f   gdi32:GDI32.dll
 0001:0001eed4       _SetTextColor@8            0041fed4 f   gdi32:GDI32.dll
 0001:0001eeda       _SelectClipRgn@8           0041feda f   gdi32:GDI32.dll
 0001:0001eee0       _CreateRectRgnIndirect@4   0041fee0 f   gdi32:GDI32.dll
 0001:0001eee6       _GetStockObject@4          0041fee6 f   gdi32:GDI32.dll
 0001:0001eeec       _CreateFontA@56            0041feec f   gdi32:GDI32.dll
 0001:0001ef00       ??0fstream@@QAE@XZ         0041ff00 f   libcid:fstream.obj
 0001:0001f010       ?delbuf@ios@@QAEXH@Z       00420010 f i libcid:fstream.obj
 0001:0001f030       ??3@YAXPAXHPBDH@Z          00420030 f i libcid:fstream.obj
 0001:0001f050       ??_Gfstream@@UAEPAXI@Z     00420050 f i libcid:fstream.obj
 0001:0001f050       ??_Efstream@@UAEPAXI@Z     00420050 f i libcid:fstream.obj
 0001:0001f090       ??0fstream@@QAE@PBDHH@Z    00420090 f   libcid:fstream.obj
 0001:0001f1e0       ?rdbuf@fstream@@QBEPAVfilebuf@@XZ 004201e0 f i libcid:fstream.obj
 0001:0001f200       ?rdbuf@ios@@QBEPAVstreambuf@@XZ 00420200 f i libcid:fstream.obj
 0001:0001f220       ??0fstream@@QAE@H@Z        00420220 f   libcid:fstream.obj
 0001:0001f330       ??0fstream@@QAE@HPADH@Z    00420330 f   libcid:fstream.obj
 0001:0001f440       ??1fstream@@UAE@XZ         00420440 f   libcid:fstream.obj
 0001:0001f470       ?setbuf@fstream@@QAEPAVstreambuf@@PADH@Z 00420470 f   libcid:fstream.obj
 0001:0001f510       ?clear@ios@@QAEXH@Z        00420510 f i libcid:fstream.obj
 0001:0001f540       ?is_open@fstream@@QBEHXZ   00420540 f i libcid:fstream.obj
 0001:0001f560       ?is_open@filebuf@@QBEHXZ   00420560 f i libcid:fstream.obj
 0001:0001f580       ?attach@fstream@@QAEXH@Z   00420580 f   libcid:fstream.obj
 0001:0001f5f0       ?open@fstream@@QAEXPBDHH@Z 004205f0 f   libcid:fstream.obj
 0001:0001f670       ?close@fstream@@QAEXXZ     00420670 f   libcid:fstream.obj
 0001:0001f700       ??0filebuf@@QAE@XZ         00420700 f   libcid:filebuf.obj
 0001:0001f740       ??_Gfilebuf@@UAEPAXI@Z     00420740 f i libcid:filebuf.obj
 0001:0001f740       ??_Efilebuf@@UAEPAXI@Z     00420740 f i libcid:filebuf.obj
 0001:0001f770       ??0filebuf@@QAE@H@Z        00420770 f   libcid:filebuf.obj
 0001:0001f7b0       ??0filebuf@@QAE@HPADH@Z    004207b0 f   libcid:filebuf.obj
 0001:0001f830       ??1filebuf@@UAE@XZ         00420830 f   libcid:filebuf.obj
 0001:0001f8a0       ?lock@streambuf@@QAEXXZ    004208a0 f i libcid:filebuf.obj
 0001:0001f8b0       ?close@filebuf@@QAEPAV1@XZ 004208b0 f   libcid:filebuf.obj
 0001:0001f920       ?unlock@streambuf@@QAEXXZ  00420920 f i libcid:filebuf.obj
 0001:0001f930       ?overflow@filebuf@@UAEHH@Z 00420930 f   libcid:filebuf.obj
 0001:0001f9f0       ?sputc@streambuf@@QAEHH@Z  004209f0 f i libcid:filebuf.obj
 0001:0001fa50       ?base@streambuf@@IBEPADXZ  00420a50 f i libcid:filebuf.obj
 0001:0001fa70       ?ebuf@streambuf@@IBEPADXZ  00420a70 f i libcid:filebuf.obj
 0001:0001fa90       ?pptr@streambuf@@IBEPADXZ  00420a90 f i libcid:filebuf.obj
 0001:0001fab0       ?epptr@streambuf@@IBEPADXZ 00420ab0 f i libcid:filebuf.obj
 0001:0001fad0       ?setp@streambuf@@IAEXPAD0@Z 00420ad0 f i libcid:filebuf.obj
 0001:0001fb00       ?unbuffered@streambuf@@IBEHXZ 00420b00 f i libcid:filebuf.obj
 0001:0001fb20       ?underflow@filebuf@@UAEHXZ 00420b20 f   libcid:filebuf.obj
 0001:0001fc10       ?in_avail@streambuf@@QBEHXZ 00420c10 f i libcid:filebuf.obj
 0001:0001fc50       ?blen@streambuf@@IBEHXZ    00420c50 f i libcid:filebuf.obj
 0001:0001fc90       ?gptr@streambuf@@IBEPADXZ  00420c90 f i libcid:filebuf.obj
 0001:0001fcb0       ?setg@streambuf@@IAEXPAD00@Z 00420cb0 f i libcid:filebuf.obj
 0001:0001fcf0       ?seekoff@filebuf@@UAEJJW4seek_dir@ios@@H@Z 00420cf0 f   libcid:filebuf.obj
 0001:0001fd80       ?sync@filebuf@@UAEHXZ      00420d80 f   libcid:filebuf.obj
 0001:0001ff10       ?out_waiting@streambuf@@QBEHXZ 00420f10 f i libcid:filebuf.obj
 0001:0001ff50       ?pbase@streambuf@@IBEPADXZ 00420f50 f i libcid:filebuf.obj
 0001:0001ff70       ?egptr@streambuf@@IBEPADXZ 00420f70 f i libcid:filebuf.obj
 0001:0001ff90       ?pbump@streambuf@@IAEXH@Z  00420f90 f i libcid:filebuf.obj
 0001:0001ffc0       ?setbuf@filebuf@@UAEPAVstreambuf@@PADH@Z 00420fc0 f   libcid:filebuf.obj
 0001:00020030       ?unbuffered@streambuf@@IAEXH@Z 00421030 f i libcid:filebuf.obj
 0001:00020050       ??0ios@@IAE@XZ             00421050 f   libcid:_ios.obj
 0001:000200d0       ??_Gios@@UAEPAXI@Z         004210d0 f i libcid:_ios.obj
 0001:000200d0       ??_Eios@@UAEPAXI@Z         004210d0 f i libcid:_ios.obj
 0001:00020100       ??0ios@@QAE@PAVstreambuf@@@Z 00421100 f   libcid:_ios.obj
 0001:00020190       ??0ios@@IAE@ABV0@@Z        00421190 f   libcid:_ios.obj
 0001:000201d0       ??1ios@@UAE@XZ             004211d0 f   libcid:_ios.obj
 0001:00020240       ?init@ios@@IAEXPAVstreambuf@@@Z 00421240 f   libcid:_ios.obj
 0001:000202d0       ?delbuf@ios@@QBEHXZ        004212d0 f i libcid:_ios.obj
 0001:000202f0       ??4ios@@IAEAAV0@ABV0@@Z    004212f0 f   libcid:_ios.obj
 0001:00020380       ?flags@ios@@QBEJXZ         00421380 f i libcid:_ios.obj
 0001:000203a0       ?width@ios@@QBEHXZ         004213a0 f i libcid:_ios.obj
 0001:000203c0       ?tie@ios@@QBEPAVostream@@XZ 004213c0 f i libcid:_ios.obj
 0001:000203e0       ?fill@ios@@QBEDXZ          004213e0 f i libcid:_ios.obj
 0001:00020400       ?precision@ios@@QBEHXZ     00421400 f i libcid:_ios.obj
 0001:00020420       ?rdstate@ios@@QBEHXZ       00421420 f i libcid:_ios.obj
 0001:00020440       ?xalloc@ios@@SAHXZ         00421440 f   libcid:_ios.obj
 0001:00020500       ?bitalloc@ios@@SAJXZ       00421500 f   libcid:_ios.obj
 0001:00020530       ?lockc@ios@@KAXXZ          00421530 f i libcid:_ios.obj
 0001:00020540       ?unlockc@ios@@KAXXZ        00421540 f i libcid:_ios.obj
 0001:00020550       ?opfx@ostream@@QAEHXZ      00421550 f   libcid:ostream.obj
 0001:00020600       ?lockbuf@ios@@QAAXXZ       00421600 f i libcid:ostream.obj
 0001:00020610       ?osfx@ostream@@QAEXXZ      00421610 f   libcid:ostream.obj
 0001:00020730       ?unlockbuf@ios@@QAAXXZ     00421730 f i libcid:ostream.obj
 0001:00020740       ??6ostream@@QAEAAV0@PBD@Z  00421740 f   libcid:ostream.obj
 0001:00020780       ?flush@ostream@@QAEAAV1@XZ 00421780 f   libcid:ostream.obj
 0001:00020830       ??0ostream@@IAE@XZ         00421830 f   libcid:ostream.obj
 0001:00020890       ??_Gostream@@UAEPAXI@Z     00421890 f i libcid:ostream.obj
 0001:00020890       ??_Eostream@@UAEPAXI@Z     00421890 f i libcid:ostream.obj
 0001:000208d0       ??_Dostream@@QAEXXZ        004218d0 f i libcid:ostream.obj
 0001:00020900       ??0ostream@@QAE@PAVstreambuf@@@Z 00421900 f   libcid:ostream.obj
 0001:000209a0       ??0ostream@@IAE@ABV0@@Z    004219a0 f   libcid:ostream.obj
 0001:00020a50       ??1ostream@@UAE@XZ         00421a50 f   libcid:ostream.obj
 0001:00020a70       ??4ostream@@IAEAAV0@PAVstreambuf@@@Z 00421a70 f   libcid:ostream.obj
 0001:00020b80       ??0ostream_withassign@@QAE@XZ 00421b80 f   libcid:ostream.obj
 0001:00020c10       ??_Gostream_withassign@@UAEPAXI@Z 00421c10 f i libcid:ostream.obj
 0001:00020c10       ??_Eostream_withassign@@UAEPAXI@Z 00421c10 f i libcid:ostream.obj
 0001:00020c50       ??_Dostream_withassign@@QAEXXZ 00421c50 f i libcid:ostream.obj
 0001:00020c80       ??0ostream_withassign@@QAE@PAVstreambuf@@@Z 00421c80 f   libcid:ostream.obj
 0001:00020d10       ??1ostream_withassign@@UAE@XZ 00421d10 f   libcid:ostream.obj
 0001:00020d40       ?writepad@ostream@@AAEAAV1@PBD0@Z 00421d40 f   libcid:ostream.obj
 0001:00020fa0       ?sputn@streambuf@@QAEHPBDH@Z 00421fa0 f i libcid:ostream.obj
 0001:00020fc0       ?get@istream@@QAEHXZ       00421fc0 f   libcid:istrget.obj
 0001:00021040       ?isfx@istream@@QAEXXZ      00422040 f i libcid:istrget.obj
 0001:00021080       ?get@istream@@QAEAAV1@AAD@Z 00422080 f   libcid:istrget.obj
 0001:00021100       ?read@istream@@QAEAAV1@PADH@Z 00422100 f   libcid:istrget.obj
 0001:00021180       ?sgetn@streambuf@@QAEHPADH@Z 00422180 f i libcid:istrget.obj
 0001:000211a0       ?get@istream@@IAEAAV1@PADHH@Z 004221a0 f   libcid:istrgetl.obj
 0001:00021300       ??0iostream@@IAE@XZ        00422300 f   libcid:_iostrea.obj
 0001:000213b0       ??_Eiostream@@UAEPAXI@Z    004223b0 f i libcid:_iostrea.obj
 0001:000213b0       ??_Giostream@@UAEPAXI@Z    004223b0 f i libcid:_iostrea.obj
 0001:000213f0       ??_Diostream@@QAEXXZ       004223f0 f i libcid:_iostrea.obj
 0001:00021420       ??0iostream@@QAE@PAVstreambuf@@@Z 00422420 f   libcid:_iostrea.obj
 0001:000214d0       ??0iostream@@IAE@ABV0@@Z   004224d0 f   libcid:_iostrea.obj
 0001:000215a0       ??1iostream@@UAE@XZ        004225a0 f   libcid:_iostrea.obj
 0001:00021660       ?attach@filebuf@@QAEPAV1@H@Z 00422660 f   libcid:filebuf1.obj
 0001:00021710       ?open@filebuf@@QAEPAV1@PBDHH@Z 00422710 f   libcid:filebuf1.obj
 0001:00021970       ?setmode@filebuf@@QAEHH@Z  00422970 f   libcid:filebuf1.obj
 0001:000219f0       ??0streambuf@@IAE@XZ       004229f0 f   libcid:streamb.obj
 0001:00021a80       ??_Estreambuf@@UAEPAXI@Z   00422a80 f i libcid:streamb.obj
 0001:00021a80       ??_Gstreambuf@@UAEPAXI@Z   00422a80 f i libcid:streamb.obj
 0001:00021ab0       ??0streambuf@@IAE@PADH@Z   00422ab0 f   libcid:streamb.obj
 0001:00021b70       ??1streambuf@@UAE@XZ       00422b70 f   libcid:streamb.obj
 0001:00021bc0       ?setbuf@streambuf@@UAEPAV1@PADH@Z 00422bc0 f   libcid:streamb.obj
 0001:00021c20       ?xsputn@streambuf@@UAEHPBDH@Z 00422c20 f   libcid:streamb.obj
 0001:00021cb0       ?xsgetn@streambuf@@UAEHPADH@Z 00422cb0 f   libcid:streamb.obj
 0001:00021df0       ?sync@streambuf@@UAEHXZ    00422df0 f   libcid:streamb.obj
 0001:00021e20       ?allocate@streambuf@@IAEHXZ 00422e20 f   libcid:streamb.obj
 0001:00021e60       ?doallocate@streambuf@@MAEHXZ 00422e60 f   libcid:streamb.obj
 0001:00021ec0       ?setb@streambuf@@IAEXPAD0H@Z 00422ec0 f   libcid:streamb.obj
 0001:00021f20       ?seekoff@streambuf@@UAEJJW4seek_dir@ios@@H@Z 00422f20 f   libcid:streamb.obj
 0001:00021f30       ?seekpos@streambuf@@UAEJJH@Z 00422f30 f   libcid:streamb.obj
 0001:00021f60       ?pbackfail@streambuf@@UAEHH@Z 00422f60 f   libcid:streamb.obj
 0001:00022010       ?sputbackc@streambuf@@QAEHD@Z 00423010 f i libcid:streamb.obj
 0001:00022070       ?eback@streambuf@@IBEPADXZ 00423070 f i libcid:streamb.obj
 0001:00022090       ?snextc@streambuf@@QAEHXZ  00423090 f   libcid:streamb1.obj
 0001:00022140       ?sbumpc@streambuf@@QAEHXZ  00423140 f   libcid:streamb1.obj
 0001:000221d0       ?stossc@streambuf@@QAEXXZ  004231d0 f   libcid:streamb1.obj
 0001:00022250       ?sgetc@streambuf@@QAEHXZ   00423250 f   libcid:streamb1.obj
 0001:000222a0       ??0istream@@IAE@XZ         004232a0 f   libcid:istream.obj
 0001:00022330       ??_Eistream@@UAEPAXI@Z     00423330 f i libcid:istream.obj
 0001:00022330       ??_Gistream@@UAEPAXI@Z     00423330 f i libcid:istream.obj
 0001:00022370       ??_Distream@@QAEXXZ        00423370 f i libcid:istream.obj
 0001:000223a0       ??0istream@@QAE@PAVstreambuf@@@Z 004233a0 f   libcid:istream.obj
 0001:00022470       ??0istream@@IAE@ABV0@@Z    00423470 f   libcid:istream.obj
 0001:00022550       ??1istream@@UAE@XZ         00423550 f   libcid:istream.obj
 0001:00022570       ??4istream@@IAEAAV0@PAVstreambuf@@@Z 00423570 f   libcid:istream.obj
 0001:000226b0       ?ipfx@istream@@QAEHH@Z     004236b0 f   libcid:istream.obj
 0001:00022810       ??5istream@@QAEAAV0@PAD@Z  00423810 f   libcid:istream.obj
 0001:00022980       ?peek@istream@@QAEHXZ      00423980 f   libcid:istream.obj
 0001:000229d0       ?putback@istream@@QAEAAV1@D@Z 004239d0 f   libcid:istream.obj
 0001:00022a60       ?good@ios@@QBEHXZ          00423a60 f i libcid:istream.obj
 0001:00022a80       ?sync@istream@@QAEHXZ      00423a80 f   libcid:istream.obj
 0001:00022b10       ?eatwhite@istream@@QAEXXZ  00423b10 f   libcid:istream.obj
 0001:00022bc0       ??0istream_withassign@@QAE@XZ 00423bc0 f   libcid:istream.obj
 0001:00022c50       ??_Gistream_withassign@@UAEPAXI@Z 00423c50 f i libcid:istream.obj
 0001:00022c50       ??_Eistream_withassign@@UAEPAXI@Z 00423c50 f i libcid:istream.obj
 0001:00022c90       ??_Distream_withassign@@QAEXXZ 00423c90 f i libcid:istream.obj
 0001:00022cc0       ??0istream_withassign@@QAE@PAVstreambuf@@@Z 00423cc0 f   libcid:istream.obj
 0001:00022d50       ??1istream_withassign@@UAE@XZ 00423d50 f   libcid:istream.obj
 0001:00022d80       ??3@YAXPAX@Z               00423d80 f   libcpd:delop.obj
 0001:00022da0       __chkesp                   00423da0 f   LIBCD:chkesp.obj
 0001:00022de0       ??2@YAPAXI@Z               00423de0 f   LIBCD:new.obj
 0001:00022e00       ?_JumpToContinuation@@YGXPAXPAUEHRegistrationNode@@@Z 00423e00 f   LIBCD:trnsctrl.obj
 0001:00022e40       ?_CallMemberFunction0@@YGXPAX0@Z 00423e40 f   LIBCD:trnsctrl.obj
 0001:00022e50       ?_CallMemberFunction1@@YGXPAX00@Z 00423e50 f   LIBCD:trnsctrl.obj
 0001:00022e60       ?_CallMemberFunction2@@YGXPAX00H@Z 00423e60 f   LIBCD:trnsctrl.obj
 0001:00022e70       ?_UnwindNestedFrames@@YGXPAUEHRegistrationNode@@PAUEHExceptionRecord@@@Z 00423e70 f   LIBCD:trnsctrl.obj
 0001:00022ed0       ___CxxFrameHandler         00423ed0 f   LIBCD:trnsctrl.obj
 0001:00022f10       ___CxxLongjmpUnwind@4      00423f10 f   LIBCD:trnsctrl.obj
 0001:00022f40       ?_CallCatchBlock2@@YAPAXPAUEHRegistrationNode@@PBU_s_FuncInfo@@PAXHK@Z 00423f40 f   LIBCD:trnsctrl.obj
 0001:00022ff0       ?_CallSETranslator@@YAHPAUEHExceptionRecord@@PAUEHRegistrationNode@@PAX2PBU_s_FuncInfo@@H1@Z 00423ff0 f   LIBCD:trnsctrl.obj
 0001:00023150       ?_GetRangeOfTrysToCheck@@YAPBU_s_TryBlockMapEntry@@PBU_s_FuncInfo@@HHPAI1@Z 00424150 f   LIBCD:trnsctrl.obj
 0001:000231e0       __global_unwind2           004241e0 f   LIBCD:exsup.obj
 0001:00023222       __local_unwind2            00424222 f   LIBCD:exsup.obj
 0001:0002327a       __NLG_Return2              0042427a f   LIBCD:exsup.obj
 0001:0002328a       __abnormal_termination     0042428a f   LIBCD:exsup.obj
 0001:000232ad       __NLG_Notify1              004242ad f   LIBCD:exsup.obj
 0001:000232b6       __NLG_Notify               004242b6 f   LIBCD:exsup.obj
 0001:000232c9       __NLG_Dispatch             004242c9 f   LIBCD:exsup.obj
 0001:000232d0       __onexit                   004242d0 f   LIBCD:onexit.obj
 0001:00023380       _atexit                    00424380 f   LIBCD:onexit.obj
 0001:000233a0       ___onexitinit              004243a0 f   LIBCD:onexit.obj
 0001:000233f0       _srand                     004243f0 f   LIBCD:rand.obj
 0001:00023400       _rand                      00424400 f   LIBCD:rand.obj
 0001:00023430       _time                      00424430 f   LIBCD:time.obj
 0001:000235c0       _sprintf                   004245c0 f   LIBCD:sprintf.obj
 0001:000236c0       _WinMainCRTStartup         004246c0 f   LIBCD:wincrt0.obj
 0001:00023820       __amsg_exit                00424820 f   LIBCD:wincrt0.obj
 0001:00023880       __assert                   00424880 f   LIBCD:assert.obj
 0001:00023c00       __fpmath                   00424c00 f   LIBCD:fpinit.obj
 0001:00023c30       __fpclear                  00424c30 f   LIBCD:fpinit.obj
 0001:00023c40       __cfltcvt_init             00424c40 f   LIBCD:fpinit.obj
 0001:00023c90       ___setfflag                00424c90 f   LIBCD:fpinit.obj
 0001:00023cac       __ftol                     00424cac f   LIBCD:ftol.obj
 0001:00023ce0       _memcpy                    00424ce0 f   LIBCD:memcpy.obj
 0001:00024020       ??1type_info@@UAE@XZ       00425020 f   LIBCD:typinfo.obj
 0001:00024050       ??_Gtype_info@@UAEPAXI@Z   00425050 f i LIBCD:typinfo.obj
 0001:00024050       ??_Etype_info@@UAEPAXI@Z   00425050 f i LIBCD:typinfo.obj
 0001:00024080       ??8type_info@@QBEHABV0@@Z  00425080 f   LIBCD:typinfo.obj
 0001:000240b0       ??9type_info@@QBEHABV0@@Z  004250b0 f   LIBCD:typinfo.obj
 0001:000240e0       ?before@type_info@@QBEHABV1@@Z 004250e0 f   LIBCD:typinfo.obj
 0001:00024110       ?raw_name@type_info@@QBEPBDXZ 00425110 f   LIBCD:typinfo.obj
 0001:00024130       ??0type_info@@AAE@ABV0@@Z  00425130 f   LIBCD:typinfo.obj
 0001:00024150       ??4type_info@@AAEAAV0@ABV0@@Z 00425150 f   LIBCD:typinfo.obj
 0001:00024160       _memset                    00425160 f   LIBCD:memset.obj
 0001:000241c0       __CxxThrowException@8      004251c0 f   LIBCD:throw.obj
 0001:00024210       _strcpy                    00425210 f   LIBCD:strcat.obj
 0001:00024220       _strcat                    00425220 f   LIBCD:strcat.obj
 0001:00024300       _strlen                    00425300 f   LIBCD:strlen.obj
 0001:00024380       __alldiv                   00425380 f   LIBCD:lldiv.obj
 0001:00024430       __allmul                   00425430 f   LIBCD:llmul.obj
 0001:00024470       ??2@YAPAXIHPBDH@Z          00425470 f   LIBCD:dbgnew.obj
 0001:00024490       __close                    00425490 f   LIBCD:close.obj
 0001:00024580       __write                    00425580 f   LIBCD:write.obj
 0001:00024830       __read                     00425830 f   LIBCD:read.obj
 0001:00024c90       __lseek                    00425c90 f   LIBCD:lseek.obj
 0001:00024d80       __ioinit                   00425d80 f   LIBCD:ioinit.obj
 0001:00025090       __ioterm                   00426090 f   LIBCD:ioinit.obj
 0001:000250f0       _memmove                   004260f0 f   LIBCD:memmove.obj
 0001:00025430       _fflush                    00426430 f   LIBCD:fflush.obj
 0001:00025490       __flush                    00426490 f   LIBCD:fflush.obj
 0001:00025550       __flushall                 00426550 f   LIBCD:fflush.obj
 0001:00025640       ___initstdio               00426640 f   LIBCD:_file.obj
 0001:00025770       ___endstdio                00426770 f   LIBCD:_file.obj
 0001:00025790       __open                     00426790 f   LIBCD:open.obj
 0001:000257d0       __sopen                    004267d0 f   LIBCD:open.obj
 0001:00025cc0       __setmode                  00426cc0 f   LIBCD:setmode.obj
 0001:00025dc0       __purecall                 00426dc0 f   LIBCD:purevirt.obj
 0001:00025dd0       _isalpha                   00426dd0 f   LIBCD:_ctype.obj
 0001:00025e20       _isupper                   00426e20 f   LIBCD:_ctype.obj
 0001:00025e60       _islower                   00426e60 f   LIBCD:_ctype.obj
 0001:00025ea0       _isdigit                   00426ea0 f   LIBCD:_ctype.obj
 0001:00025ee0       _isxdigit                  00426ee0 f   LIBCD:_ctype.obj
 0001:00025f30       _isspace                   00426f30 f   LIBCD:_ctype.obj
 0001:00025f70       _ispunct                   00426f70 f   LIBCD:_ctype.obj
 0001:00025fb0       _isalnum                   00426fb0 f   LIBCD:_ctype.obj
 0001:00026000       _isprint                   00427000 f   LIBCD:_ctype.obj
 0001:00026050       _isgraph                   00427050 f   LIBCD:_ctype.obj
 0001:000260a0       _iscntrl                   004270a0 f   LIBCD:_ctype.obj
 0001:000260e0       ___isascii                 004270e0 f   LIBCD:_ctype.obj
 0001:000260f0       ___toascii                 004270f0 f   LIBCD:_ctype.obj
 0001:00026100       ___iscsymf                 00427100 f   LIBCD:_ctype.obj
 0001:00026160       ___iscsym                  00427160 f   LIBCD:_ctype.obj
 0001:000261c0       _malloc                    004271c0 f   LIBCD:dbgheap.obj
 0001:000261e0       __malloc_dbg               004271e0 f   LIBCD:dbgheap.obj
 0001:00026210       __nh_malloc                00427210 f   LIBCD:dbgheap.obj
 0001:00026230       __nh_malloc_dbg            00427230 f   LIBCD:dbgheap.obj
 0001:00026280       __heap_alloc               00427280 f   LIBCD:dbgheap.obj
 0001:000262a0       __heap_alloc_dbg           004272a0 f   LIBCD:dbgheap.obj
 0001:000265c0       _calloc                    004275c0 f   LIBCD:dbgheap.obj
 0001:000265e0       __calloc_dbg               004275e0 f   LIBCD:dbgheap.obj
 0001:00026640       _realloc                   00427640 f   LIBCD:dbgheap.obj
 0001:00026660       __realloc_dbg              00427660 f   LIBCD:dbgheap.obj
 0001:00026bb0       __expand                   00427bb0 f   LIBCD:dbgheap.obj
 0001:00026bd0       __expand_dbg               00427bd0 f   LIBCD:dbgheap.obj
 0001:00026c00       _free                      00427c00 f   LIBCD:dbgheap.obj
 0001:00026c20       __free_dbg                 00427c20 f   LIBCD:dbgheap.obj
 0001:00027010       __msize                    00428010 f   LIBCD:dbgheap.obj
 0001:00027030       __msize_dbg                00428030 f   LIBCD:dbgheap.obj
 0001:00027180       __CrtSetBreakAlloc         00428180 f   LIBCD:dbgheap.obj
 0001:000271a0       __CrtSetDbgBlockType       004281a0 f   LIBCD:dbgheap.obj
 0001:00027230       __CrtSetAllocHook          00428230 f   LIBCD:dbgheap.obj
 0001:000272e0       __CrtCheckMemory           004282e0 f   LIBCD:dbgheap.obj
 0001:00027640       __CrtSetDbgFlag            00428640 f   LIBCD:dbgheap.obj
 0001:00027670       __CrtDoForAllClientObjects 00428670 f   LIBCD:dbgheap.obj
 0001:000276d0       __CrtIsValidPointer        004286d0 f   LIBCD:dbgheap.obj
 0001:00027720       __CrtIsValidHeapPointer    00428720 f   LIBCD:dbgheap.obj
 0001:000277b0       __CrtIsMemoryBlock         004287b0 f   LIBCD:dbgheap.obj
 0001:00027880       __CrtSetDumpClient         00428880 f   LIBCD:dbgheap.obj
 0001:000278a0       __CrtMemCheckpoint         004288a0 f   LIBCD:dbgheap.obj
 0001:00027a00       __CrtMemDifference         00428a00 f   LIBCD:dbgheap.obj
 0001:00027b30       __CrtMemDumpAllObjectsSince 00428b30 f   LIBCD:dbgheap.obj
 0001:00027f00       __CrtDumpMemoryLeaks       00428f00 f   LIBCD:dbgheap.obj
 0001:00027f80       __CrtMemDumpStatistics     00428f80 f   LIBCD:dbgheap.obj
 0001:00028050       __CrtDbgBreak              00429050 f   LIBCD:dbgrpt.obj
 0001:00028060       __CrtSetReportMode         00429060 f   LIBCD:dbgrpt.obj
 0001:000280c0       __CrtSetReportFile         004290c0 f   LIBCD:dbgrpt.obj
 0001:00028140       __CrtSetReportHook         00429140 f   LIBCD:dbgrpt.obj
 0001:00028160       __CrtDbgReport             00429160 f   LIBCD:dbgrpt.obj
 0001:00028800       ___InternalCxxFrameHandler 00429800 f   LIBCD:frame.obj
 0001:00028d70       ___FrameUnwindToState      00429d70 f   LIBCD:frame.obj
 0001:00029380       ?_DestructExceptionObject@@YAXPAUEHExceptionRecord@@E@Z 0042a380 f   LIBCD:frame.obj
 0001:00029460       __CallSettingFrame@12      0042a460 f   LIBCD:lowhelpr.obj
 0001:00029487       __NLG_Return               0042a487 f   LIBCD:lowhelpr.obj
 0001:000294b0       ?terminate@@YAXXZ          0042a4b0 f   LIBCD:hooks.obj
 0001:00029540       ?unexpected@@YAXXZ         0042a540 f   LIBCD:hooks.obj
 0001:00029560       ?_inconsistency@@YAXXZ     0042a560 f   LIBCD:hooks.obj
 0001:000295f0       __cinit                    0042a5f0 f   LIBCD:crt0dat.obj
 0001:00029630       _exit                      0042a630 f   LIBCD:crt0dat.obj
 0001:00029650       __exit                     0042a650 f   LIBCD:crt0dat.obj
 0001:00029670       __cexit                    0042a670 f   LIBCD:crt0dat.obj
 0001:00029690       __c_exit                   0042a690 f   LIBCD:crt0dat.obj
 0001:000297c0       ___loctotime_t             0042a7c0 f   LIBCD:dtoxtime.obj
 0001:000298b0       __flsbuf                   0042a8b0 f   LIBCD:_flsbuf.obj
 0001:00029b30       __output                   0042ab30 f   LIBCD:output.obj
 0001:0002a9d0       __XcptFilter               0042b9d0 f   LIBCD:winxfltr.obj
 0001:0002abe0       __wincmdln                 0042bbe0 f   LIBCD:wincmdln.obj
 0001:0002aca0       __setenvp                  0042bca0 f   LIBCD:stdenvp.obj
 0001:0002adf0       __setargv                  0042bdf0 f   LIBCD:stdargv.obj
 0001:0002b300       ___crtGetEnvironmentStringsA 0042c300 f   LIBCD:a_env.obj
 0001:0002b520       __heap_init                0042c520 f   LIBCD:heapinit.obj
 0001:0002b570       __heap_term                0042c570 f   LIBCD:heapinit.obj
 0001:0002b614       __except_handler3          0042c614 f   LIBCD:exsup3.obj
 0001:0002b6d1       __seh_longjmp_unwind@4     0042c6d1 f   LIBCD:exsup3.obj
 0001:0002b6f0       __FF_MSGBANNER             0042c6f0 f   LIBCD:crt0msg.obj
 0001:0002b740       __NMSG_WRITE               0042c740 f   LIBCD:crt0msg.obj
 0001:0002b900       __GET_RTERRMSG             0042c900 f   LIBCD:crt0msg.obj
 0001:0002b950       _abort                     0042c950 f   LIBCD:abort.obj
 0001:0002b970       _signal                    0042c970 f   LIBCD:winsig.obj
 0001:0002bb80       _raise                     0042cb80 f   LIBCD:winsig.obj
 0001:0002bda0       ___crtMessageBoxA          0042cda0 f   LIBCD:crtmbox.obj
 0001:0002be60       __itoa                     0042ce60 f   LIBCD:xtoa.obj
 0001:0002bf80       __ltoa                     0042cf80 f   LIBCD:xtoa.obj
 0001:0002bfc0       __ultoa                    0042cfc0 f   LIBCD:xtoa.obj
 0001:0002bfe0       __i64toa                   0042cfe0 f   LIBCD:xtoa.obj
 0001:0002c130       __ui64toa                  0042d130 f   LIBCD:xtoa.obj
 0001:0002c150       _strncat                   0042d150 f   LIBCD:strncat.obj
 0001:0002c280       _strncpy                   0042d280 f   LIBCD:strncpy.obj
 0001:0002c380       _fprintf                   0042d380 f   LIBCD:fprintf.obj
 0001:0002c430       _setvbuf                   0042d430 f   LIBCD:setvbuf.obj
 0001:0002c590       __setdefaultprecision      0042d590 f   LIBCD:fp8.obj
 0001:0002c5b0       __ms_p5_test_fdiv          0042d5b0 f   LIBCD:testfdiv.obj
 0001:0002c610       __ms_p5_mp_test_fdiv       0042d610 f   LIBCD:testfdiv.obj
 0001:0002c660       __forcdecpt                0042d660 f   LIBCD:cvt.obj
 0001:0002c710       __cropzeros                0042d710 f   LIBCD:cvt.obj
 0001:0002c7f0       __positive                 0042d7f0 f   LIBCD:cvt.obj
 0001:0002c820       __fassign                  0042d820 f   LIBCD:cvt.obj
 0001:0002c870       __cftoe                    0042d870 f   LIBCD:cvt.obj
 0001:0002ca30       __cftof                    0042da30 f   LIBCD:cvt.obj
 0001:0002cbc0       __cftog                    0042dbc0 f   LIBCD:cvt.obj
 0001:0002cd30       __cfltcvt                  0042dd30 f   LIBCD:cvt.obj
 0001:0002cdc0       __free_base                0042ddc0 f   LIBCD:free.obj
 0001:0002ce10       _strcmp                    0042de10 f   LIBCD:strcmp.obj
 0001:0002cea0       ?__CxxUnhandledExceptionFilter@@YGJPAU_EXCEPTION_POINTERS@@@Z 0042dea0 f   LIBCD:unhandld.obj
 0001:0002cf00       ?__CxxSetUnhandledExceptionFilter@@YAXXZ 0042df00 f   LIBCD:unhandld.obj
 0001:0002cf20       ?__CxxRestoreUnhandledExceptionFilter@@YAXXZ 0042df20 f   LIBCD:unhandld.obj
 0001:0002cf40       __dosmaperr                0042df40 f   LIBCD:dosmap.obj
 0001:0002cfd0       __alloc_osfhnd             0042dfd0 f   LIBCD:osfinfo.obj
 0001:0002d100       __set_osfhnd               0042e100 f   LIBCD:osfinfo.obj
 0001:0002d1b0       __free_osfhnd              0042e1b0 f   LIBCD:osfinfo.obj
 0001:0002d280       __get_osfhandle            0042e280 f   LIBCD:osfinfo.obj
 0001:0002d2e0       __open_osfhandle           0042e2e0 f   LIBCD:osfinfo.obj
 0001:0002d3d0       __commit                   0042e3d0 f   LIBCD:commit.obj
 0001:0002d480       __fcloseall                0042e480 f   LIBCD:closeall.obj
 0001:0002d530       __chsize                   0042e530 f   LIBCD:chsize.obj
 0001:0002d7a0       __isctype                  0042e7a0 f   LIBCD:isctype.obj
 0001:0002d860       ?_set_new_handler@@YAP6AHI@ZP6AHI@Z@Z 0042e860 f   LIBCD:handler.obj
 0001:0002d880       ?_query_new_handler@@YAP6AHI@ZXZ 0042e880 f   LIBCD:handler.obj
 0001:0002d890       __callnewh                 0042e890 f   LIBCD:handler.obj
 0001:0002d8c0       __malloc_base              0042e8c0 f   LIBCD:malloc.obj
 0001:0002d8e0       __nh_malloc_base           0042e8e0 f   LIBCD:malloc.obj
 0001:0002d940       __heap_alloc_base          0042e940 f   LIBCD:malloc.obj
 0001:0002d9a0       __CrtDefaultAllocHook      0042e9a0 f   LIBCD:dbghook.obj
 0001:0002d9b0       __expand_base              0042e9b0 f   LIBCD:expand.obj
 0001:0002da40       __realloc_base             0042ea40 f   LIBCD:realloc.obj
 0001:0002dc10       __heapchk                  0042ec10 f   LIBCD:heapchk.obj
 0001:0002dc70       __heapset                  0042ec70 f   LIBCD:heapchk.obj
 0001:0002dc80       __get_sbh_threshold        0042ec80 f   LIBCD:sbheap.obj
 0001:0002dc90       __set_sbh_threshold        0042ec90 f   LIBCD:sbheap.obj
 0001:0002dcb0       ___sbh_heap_init           0042ecb0 f   LIBCD:sbheap.obj
 0001:0002dd10       ___sbh_find_block          0042ed10 f   LIBCD:sbheap.obj
 0001:0002dd70       ___sbh_verify_block        0042ed70 f   LIBCD:sbheap.obj
 0001:0002ddd0       ___sbh_free_block          0042edd0 f   LIBCD:sbheap.obj
 0001:0002e3a0       ___sbh_alloc_block         0042f3a0 f   LIBCD:sbheap.obj
 0001:0002e8e0       ___sbh_alloc_new_region    0042f8e0 f   LIBCD:sbheap.obj
 0001:0002e9f0       ___sbh_alloc_new_group     0042f9f0 f   LIBCD:sbheap.obj
 0001:0002ebe0       ___sbh_resize_block        0042fbe0 f   LIBCD:sbheap.obj
 0001:0002f1d0       ___sbh_heapmin             004301d0 f   LIBCD:sbheap.obj
 0001:0002f300       ___sbh_heap_check          00430300 f   LIBCD:sbheap.obj
 0001:0002f920       __snprintf                 00430920 f   LIBCD:snprintf.obj
 0001:0002fa20       __vsnprintf                00430a20 f   LIBCD:vsnprint.obj
 0001:0002fb20       __chkstk                   00430b20 f   LIBCD:chkstk.obj
 0001:0002fb20       __alloca_probe             00430b20 f   LIBCD:chkstk.obj
 0001:0002fb50       ?_ValidateRead@@YAHPBXI@Z  00430b50 f   LIBCD:validate.obj
 0001:0002fb80       ?_ValidateWrite@@YAHPAXI@Z 00430b80 f   LIBCD:validate.obj
 0001:0002fbb0       ?_ValidateExecute@@YAHP6GHXZ@Z 00430bb0 f   LIBCD:validate.obj
 0001:0002fbe0       ___tzset                   00430be0 f   LIBCD:tzset.obj
 0001:0002fc10       __tzset                    00430c10 f   LIBCD:tzset.obj
 0001:0002ff90       __isindst                  00430f90 f   LIBCD:tzset.obj
 0001:00030490       __getbuf                   00431490 f   LIBCD:_getbuf.obj
 0001:00030560       __isatty                   00431560 f   LIBCD:isatty.obj
 0001:00030590       _wctomb                    00431590 f   LIBCD:wctomb.obj
 0001:00030630       __aulldiv                  00431630 f   LIBCD:ulldiv.obj
 0001:000306a0       __aullrem                  004316a0 f   LIBCD:ullrem.obj
 0001:00030720       __ismbbkalnum              00431720 f   LIBCD:ismbbyte.obj
 0001:00030740       __ismbbkprint              00431740 f   LIBCD:ismbbyte.obj
 0001:00030760       __ismbbkpunct              00431760 f   LIBCD:ismbbyte.obj
 0001:00030780       __ismbbalnum               00431780 f   LIBCD:ismbbyte.obj
 0001:000307a0       __ismbbalpha               004317a0 f   LIBCD:ismbbyte.obj
 0001:000307c0       __ismbbgraph               004317c0 f   LIBCD:ismbbyte.obj
 0001:000307e0       __ismbbprint               004317e0 f   LIBCD:ismbbyte.obj
 0001:00030800       __ismbbpunct               00431800 f   LIBCD:ismbbyte.obj
 0001:00030820       __ismbblead                00431820 f   LIBCD:ismbbyte.obj
 0001:00030840       __ismbbtrail               00431840 f   LIBCD:ismbbyte.obj
 0001:00030860       __ismbbkana                00431860 f   LIBCD:ismbbyte.obj
 0001:00030910       __setmbcp                  00431910 f   LIBCD:mbctype.obj
 0001:00031080       __getmbcp                  00432080 f   LIBCD:mbctype.obj
 0001:000310a0       ___initmbctable            004320a0 f   LIBCD:mbctype.obj
 0001:000310d0       __stbuf                    004320d0 f   LIBCD:_sftbuf.obj
 0001:00031230       __ftbuf                    00432230 f   LIBCD:_sftbuf.obj
 0001:000312f0       __freebuf                  004322f0 f   LIBCD:_freebuf.obj
 0001:00031390       __statusfp                 00432390 f   LIBCD:ieee87.obj
 0001:000313b0       __clearfp                  004323b0 f   LIBCD:ieee87.obj
 0001:000313d0       __control87                004323d0 f   LIBCD:ieee87.obj
 0001:00031420       __controlfp                00432420 f   LIBCD:ieee87.obj
 0001:00031440       __fpreset                  00432440 f   LIBCD:ieee87.obj
 0001:00031830       __tolower                  00432830 f   LIBCD:tolower.obj
 0001:00031840       _tolower                   00432840 f   LIBCD:tolower.obj
 0001:00031970       __ZeroTail                 00432970 f   LIBCD:intrncvt.obj
 0001:00031a00       __IncMan                   00432a00 f   LIBCD:intrncvt.obj
 0001:00031ab0       __RoundMan                 00432ab0 f   LIBCD:intrncvt.obj
 0001:00031b90       __CopyMan                  00432b90 f   LIBCD:intrncvt.obj
 0001:00031be0       __FillZeroMan              00432be0 f   LIBCD:intrncvt.obj
 0001:00031c10       __IsZeroMan                00432c10 f   LIBCD:intrncvt.obj
 0001:00031c50       __ShrMan                   00432c50 f   LIBCD:intrncvt.obj
 0001:00031d40       __ld12cvt                  00432d40 f   LIBCD:intrncvt.obj
 0001:00031f90       __ld12tod                  00432f90 f   LIBCD:intrncvt.obj
 0001:00031fb0       __ld12tof                  00432fb0 f   LIBCD:intrncvt.obj
 0001:00031fd0       __ld12told                 00432fd0 f   LIBCD:intrncvt.obj
 0001:00032090       __atodbl                   00433090 f   LIBCD:intrncvt.obj
 0001:000320d0       __atoldbl                  004330d0 f   LIBCD:intrncvt.obj
 0001:00032110       __atoflt                   00433110 f   LIBCD:intrncvt.obj
 0001:00032150       __fptostr                  00433150 f   LIBCD:_fptostr.obj
 0001:00032250       __fltout                   00433250 f   LIBCD:cfout.obj
 0001:000322d0       ___dtold                   004332d0 f   LIBCD:cfout.obj
 0001:00032440       __fptrap                   00433440 f   LIBCD:crt0fp.obj
 0001:00032450       _fclose                    00433450 f   LIBCD:fclose.obj
 0001:00032530       ___crtGetStringTypeA       00433530 f   LIBCD:a_str.obj
 0001:000326f0       _atol                      004336f0 f   LIBCD:atox.obj
 0001:000327f0       _atoi                      004337f0 f   LIBCD:atox.obj
 0001:00032810       __atoi64                   00433810 f   LIBCD:atox.obj
 0001:00032940       _getenv                    00433940 f   LIBCD:getenv.obj
 0001:00032a10       ___crtLCMapStringA         00433a10 f   LIBCD:a_map.obj
 0001:00032d70       ___addl                    00433d70 f   LIBCD:mantold.obj
 0001:00032db0       ___add_12                  00433db0 f   LIBCD:mantold.obj
 0001:00032e60       ___shl_12                  00433e60 f   LIBCD:mantold.obj
 0001:00032ec0       ___shr_12                  00433ec0 f   LIBCD:mantold.obj
 0001:00032f30       ___mtold12                 00433f30 f   LIBCD:mantold.obj
 0001:00033070       ___strgtold12              00434070 f   LIBCD:strgtold.obj
 0001:00033ba0       ___STRINGTOLD              00434ba0 f   LIBCD:strgtold.obj
 0001:00033bf0       _$I10_OUTPUT               00434bf0 f   LIBCD:x10fout.obj
 0001:00034110       __mbsnbicoll               00435110 f   LIBCD:mbsnbico.obj
 0001:00034160       ___wtomb_environ           00435160 f   LIBCD:wtombenv.obj
 0001:00034210       ___ld12mul                 00435210 f   LIBCD:tenpow.obj
 0001:00034650       ___multtenpow12            00435650 f   LIBCD:tenpow.obj
 0001:00034720       ___crtCompareStringA       00435720 f   LIBCD:a_cmp.obj
 0001:00034b70       ___crtsetenv               00435b70 f   LIBCD:setenv.obj
 0001:00034fc0       __mbschr                   00435fc0 f   LIBCD:mbschr.obj
 0001:000350a0       _strchr                    004360a0 f   LIBCD:strchr.obj
 0001:000350a6       ___from_strstr_to_strchr   004360a6 f   LIBCD:strchr.obj
 0001:0003515c       _RtlUnwind@16              0043615c f   kernel32:KERNEL32.dll
 0001:00035162       _GetTimeZoneInformation@4  00436162 f   kernel32:KERNEL32.dll
 0001:00035168       _GetSystemTime@4           00436168 f   kernel32:KERNEL32.dll
 0001:0003516e       _GetLocalTime@4            0043616e f   kernel32:KERNEL32.dll
 0001:00035174       _GetModuleHandleA@4        00436174 f   kernel32:KERNEL32.dll
 0001:0003517a       _GetStartupInfoA@4         0043617a f   kernel32:KERNEL32.dll
 0001:00035180       _GetCommandLineA@0         00436180 f   kernel32:KERNEL32.dll
 0001:00035186       _GetVersion@0              00436186 f   kernel32:KERNEL32.dll
 0001:0003518c       _ExitProcess@4             0043618c f   kernel32:KERNEL32.dll
 0001:00035192       _GetModuleFileNameA@12     00436192 f   kernel32:KERNEL32.dll
 0001:00035198       _RaiseException@16         00436198 f   kernel32:KERNEL32.dll
 0001:0003519e       _GetLastError@0            0043619e f   kernel32:KERNEL32.dll
 0001:000351a4       _CloseHandle@4             004361a4 f   kernel32:KERNEL32.dll
 0001:000351aa       _WriteFile@20              004361aa f   kernel32:KERNEL32.dll
 0001:000351b0       _ReadFile@20               004361b0 f   kernel32:KERNEL32.dll
 0001:000351b6       _SetFilePointer@16         004361b6 f   kernel32:KERNEL32.dll
 0001:000351bc       _SetHandleCount@4          004361bc f   kernel32:KERNEL32.dll
 0001:000351c2       _GetStdHandle@4            004361c2 f   kernel32:KERNEL32.dll
 0001:000351c8       _GetFileType@4             004361c8 f   kernel32:KERNEL32.dll
 0001:000351ce       _CreateFileA@28            004361ce f   kernel32:KERNEL32.dll
 0001:000351d4       _IsBadWritePtr@8           004361d4 f   kernel32:KERNEL32.dll
 0001:000351da       _IsBadReadPtr@8            004361da f   kernel32:KERNEL32.dll
 0001:000351e0       _HeapValidate@12           004361e0 f   kernel32:KERNEL32.dll
 0001:000351e6       _DebugBreak@0              004361e6 f   kernel32:KERNEL32.dll
 0001:000351ec       _InterlockedDecrement@4    004361ec f   kernel32:KERNEL32.dll
 0001:000351f2       _GetProcAddress@8          004361f2 f   kernel32:KERNEL32.dll
 0001:000351f8       _LoadLibraryA@4            004361f8 f   kernel32:KERNEL32.dll
 0001:000351fe       _InterlockedIncrement@4    004361fe f   kernel32:KERNEL32.dll
 0001:00035204       _TerminateProcess@8        00436204 f   kernel32:KERNEL32.dll
 0001:0003520a       _GetCurrentProcess@0       0043620a f   kernel32:KERNEL32.dll
 0001:00035210       _UnhandledExceptionFilter@4 00436210 f   kernel32:KERNEL32.dll
 0001:00035216       _FreeEnvironmentStringsA@4 00436216 f   kernel32:KERNEL32.dll
 0001:0003521c       _FreeEnvironmentStringsW@4 0043621c f   kernel32:KERNEL32.dll
 0001:00035222       _WideCharToMultiByte@32    00436222 f   kernel32:KERNEL32.dll
 0001:00035228       _GetEnvironmentStrings@0   00436228 f   kernel32:KERNEL32.dll
 0001:0003522e       _GetEnvironmentStringsW@0  0043622e f   kernel32:KERNEL32.dll
 0001:00035234       _HeapDestroy@4             00436234 f   kernel32:KERNEL32.dll
 0001:0003523a       _HeapCreate@12             0043623a f   kernel32:KERNEL32.dll
 0001:00035240       _HeapFree@12               00436240 f   kernel32:KERNEL32.dll
 0001:00035246       _VirtualFree@12            00436246 f   kernel32:KERNEL32.dll
 0001:0003524c       _SetConsoleCtrlHandler@8   0043624c f   kernel32:KERNEL32.dll
 0001:00035252       _SetUnhandledExceptionFilter@4 00436252 f   kernel32:KERNEL32.dll
 0001:00035258       _SetStdHandle@8            00436258 f   kernel32:KERNEL32.dll
 0001:0003525e       _FlushFileBuffers@4        0043625e f   kernel32:KERNEL32.dll
 0001:00035264       _SetEndOfFile@4            00436264 f   kernel32:KERNEL32.dll
 0001:0003526a       _HeapAlloc@12              0043626a f   kernel32:KERNEL32.dll
 0001:00035270       _HeapReAlloc@16            00436270 f   kernel32:KERNEL32.dll
 0001:00035276       _VirtualAlloc@16           00436276 f   kernel32:KERNEL32.dll
 0001:0003527c       _IsBadCodePtr@4            0043627c f   kernel32:KERNEL32.dll
 0001:00035282       _GetCPInfo@8               00436282 f   kernel32:KERNEL32.dll
 0001:00035288       _GetACP@0                  00436288 f   kernel32:KERNEL32.dll
 0001:0003528e       _GetOEMCP@0                0043628e f   kernel32:KERNEL32.dll
 0001:00035294       _MultiByteToWideChar@24    00436294 f   kernel32:KERNEL32.dll
 0001:0003529a       _GetStringTypeA@20         0043629a f   kernel32:KERNEL32.dll
 0001:000352a0       _GetStringTypeW@16         004362a0 f   kernel32:KERNEL32.dll
 0001:000352a6       _LCMapStringA@24           004362a6 f   kernel32:KERNEL32.dll
 0001:000352ac       _LCMapStringW@24           004362ac f   kernel32:KERNEL32.dll
 0001:000352b2       _CompareStringA@24         004362b2 f   kernel32:KERNEL32.dll
 0001:000352b8       _CompareStringW@24         004362b8 f   kernel32:KERNEL32.dll
 0001:000352be       _SetEnvironmentVariableA@8 004362be f   kernel32:KERNEL32.dll
 0002:0000001c       ??_7BlueWindow@@6B@        0043801c     BlueWindow.obj
 0002:000000ec       ??_7DxGuiTestApp@@6B@      004380ec     DxGuiTestApp.obj
 0002:00000110       ??_C@_0O@BKCB@Comic?5Sans?5MS?$AA@ 00438110     DxGuiTestApp.obj
 0002:00000120       ??_7GreenWindow@@6B@       00438120     GreenWindow.obj
 0002:000001f0       ??_C@_0N@CDLM@Green?5Window?$AA@ 004381f0     GreenWindow.obj
 0002:00000200       ??_C@_0L@HNBO@Bitmap?4bmp?$AA@ 00438200     GreenWindow.obj
 0002:0000020c       ??_C@_0O@JHLN@MS?5Sans?5Serif?$AA@ 0043820c     GreenWindow.obj
 0002:0000021c       ??_C@_0BJ@HJAO@Bitmaps?1Stones?5Large?4bmp?$AA@ 0043821c     GreenWindow.obj
 0002:00000238       ??_7RedWindow@@6B@         00438238     RedWindow.obj
 0002:00000308       ??_C@_0L@KNGK@Red?5Window?$AA@ 00438308     RedWindow.obj
 0002:00000314       ??_C@_00A@?$AA@            00438314     RedWindow.obj
 0002:00000318       ??_C@_0DA@MKIP@Click?5the?5button?5to?5change?5the?5b@ 00438318     RedWindow.obj
 0002:00000348       ??_C@_0CF@FMCL@Red?5Window?5?9?5Left?5Button?5Down?3?5?$CF@ 00438348     RedWindow.obj
 0002:00000370       ??_C@_0BG@GKLG@New?5Position?3?5?$CFi?0?5?$CFi?6?$AA@ 00438370     RedWindow.obj
 0002:00000388       ??_C@_0BI@LLFO@Window?5Movement?3?5?$CFi?0?$CFi?6?$AA@ 00438388     RedWindow.obj
 0002:000003a0       ??_C@_0BI@MDBO@Previous?5Coords?3?5?$CFi?0?$CFi?6?$AA@ 004383a0     RedWindow.obj
 0002:000003b8       ??_C@_0BM@DJIE@Red?5Window?5?9?5Moving?3?5?$CFi?0?$CFi?6?$AA@ 004383b8     RedWindow.obj
 0002:000003d4       ??_C@_0P@DPPA@Label?5Clicked?6?$AA@ 004383d4     RedWindow.obj
 0002:000003e4       ??_7?$MsgHandlerFunction@VRedWindow@@@@6B@ 004383e4     RedWindow.obj
 0002:000003ec       ??_7MsgHandlerInterface@@6B@ 004383ec     RedWindow.obj
 0002:000003f4       ??_7DGWindow@@6B@          004383f4     DxGuiFramework:DGWindow.obj
 0002:000004c4       ??_C@_0BL@LFCF@size?4y?5?$DO?$DN?50?5?$CG?$CG?5size?4y?5?$DO?$DN?50?$AA@ 004384c4     DxGuiFramework:DGWindow.obj
 0002:000004e0       ??_C@_0EP@GFLP@C?3?2Eigene?5Dateien?2Senior?5Project@ 004384e0     DxGuiFramework:DGWindow.obj
 0002:00000530       ??_C@_0BK@FPLN@width?5?$DO?$DN?50?5?$CG?$CG?5height?5?$DO?$DN?50?$AA@ 00438530     DxGuiFramework:DGWindow.obj
 0002:0000054c       ??_C@_0DA@IHHF@dimensions?4width?5?$DO?$DN?50?5?$CG?$CG?5dimensi@ 0043854c     DxGuiFramework:DGWindow.obj
 0002:0000057c       ??_C@_0BL@CFGG@size?4x?5?$DO?$DN?50?5?$CG?$CG?5size?4y?5?$DO?$DN?50?$AA@ 0043857c     DxGuiFramework:DGWindow.obj
 0002:00000598       ??_C@_0BA@COMI@surface?5?$CB?$DN?5NULL?$AA@ 00438598     DxGuiFramework:DGWindow.obj
 0002:000005a8       ??_C@_0BE@JCJN@childWindow?5?$CB?$DN?5NULL?$AA@ 004385a8     DxGuiFramework:DGWindow.obj
 0002:000005bc       ??_C@_0BE@HHEJ@currentNode?5?$CB?$DN?5NULL?$AA@ 004385bc     DxGuiFramework:DGWindow.obj
 0002:000005d0       ??_C@_0FB@GOCN@c?3?2eigene?5dateien?2senior?5project@ 004385d0     DxGuiFramework:DGWindow.obj
 0002:00000624       ??_7?$MsgHandlerFunction@VDGWindow@@@@6B@ 00438624     DxGuiFramework:DGWindow.obj
 0002:0000062c       ??_7DGMessage@@6B@         0043862c     DxGuiFramework:DGWindow.obj
 0002:00000630       ??_7?$DGLinkedList@VDGWindow@@@@6B@ 00438630     DxGuiFramework:DGWindow.obj
 0002:00000634       ??_7DGMainWindow@@6B@      00438634     DxGuiFramework:DGMainWindow.obj
 0002:00000704       ??_7DGGui@@6B@             00438704     DxGuiFramework:DGGui.obj
 0002:00000708       ??_C@_0BA@KICF@mainWin?5?$CB?$DN?5NULL?$AA@ 00438708     DxGuiFramework:DGGui.obj
 0002:00000718       ??_C@_0EM@MFBG@C?3?2Eigene?5Dateien?2Senior?5Project@ 00438718     DxGuiFramework:DGGui.obj
 0002:00000764       ??_C@_0M@GKPN@msg?5?$CB?$DN?5NULL?$AA@ 00438764     DxGuiFramework:DGGui.obj
 0002:00000770       ??_7?$DGQueue@VDGMessage@@@@6B@ 00438770     DxGuiFramework:DGGui.obj
 0002:00000774       ??_7?$DGLinkedList@VDGMessage@@@@6B@ 00438774     DxGuiFramework:DGGui.obj
 0002:00000778       ??_C@_0BD@PPCI@DGGetApp?$CI?$CJ?5?$CB?$DN?5NULL?$AA@ 00438778     DxGuiFramework:DxGuiFramework.obj
 0002:0000078c       ??_C@_0FF@PACB@C?3?2Eigene?5Dateien?2Senior?5Project@ 0043878c     DxGuiFramework:DxGuiFramework.obj
 0002:000007e4       ??_C@_08BKOA@WinMain?6?$AA@ 004387e4     DxGuiFramework:DxGuiFramework.obj
 0002:000007f0       ??_C@_0BO@EK@An?5Unknown?5Error?5Has?5Occurred?$AA@ 004387f0     DxGuiFramework:DxGuiFramework.obj
 0002:00000810       ??_C@_0CF@HJPJ@An?5Unknown?5Bitmap?5Error?5Has?5Occu@ 00438810     DxGuiFramework:DxGuiFramework.obj
 0002:00000838       ??_C@_0CE@EEDN@A?5Bitmap?5Loading?5Error?5Has?5Occur@ 00438838     DxGuiFramework:DxGuiFramework.obj
 0002:0000085c       ??_C@_0CB@KPDG@A?5Bitmap?5File?5Error?5Has?5Occurred@ 0043885c     DxGuiFramework:DxGuiFramework.obj
 0002:00000880       ??_C@_0CJ@CMGC@An?5Unknown?5DirectDraw?5Error?5Has?5@ 00438880     DxGuiFramework:DxGuiFramework.obj
 0002:000008ac       ??_C@_0CI@GIKH@A?5DirectDraw?5Clipper?5Error?5Has?5O@ 004388ac     DxGuiFramework:DxGuiFramework.obj
 0002:000008d4       ??_C@_0CF@KGBO@A?5DirectDraw?5Text?5Error?5Has?5Occu@ 004388d4     DxGuiFramework:DxGuiFramework.obj
 0002:000008fc       ??_C@_0CK@MHNL@A?5DirectDraw?5Color?5Key?5Error?5Has@ 004388fc     DxGuiFramework:DxGuiFramework.obj
 0002:00000928       ??_C@_0CP@HNOE@A?5DirectDraw?5Bitmap?5Drawing?5Erro@ 00438928     DxGuiFramework:DxGuiFramework.obj
 0002:00000958       ??_C@_0CN@LNIL@A?5DirectDraw?5Area?5Filling?5Error?5@ 00438958     DxGuiFramework:DxGuiFramework.obj
 0002:00000988       ??_C@_0DJ@FOGJ@A?5DirectDraw?5Primary?5Surface?5Cle@ 00438988     DxGuiFramework:DxGuiFramework.obj
 0002:000009c4       ??_C@_0CM@MPIL@A?5DirectDraw?5Screen?5Fill?5Error?5H@ 004389c4     DxGuiFramework:DxGuiFramework.obj
 0002:000009f0       ??_C@_0DA@OJFK@A?5DirectDraw?5Surface?5Restore?5Err@ 004389f0     DxGuiFramework:DxGuiFramework.obj
 0002:00000a20       ??_C@_0DB@IKDF@A?5DirectDraw?5Surface?5Flipping?5Er@ 00438a20     DxGuiFramework:DxGuiFramework.obj
 0002:00000a54       ??_C@_0DC@GLGM@A?5DirectDraw?5Surface?5Unlocking?5E@ 00438a54     DxGuiFramework:DxGuiFramework.obj
 0002:00000a88       ??_C@_0DA@CJMF@A?5DirectDraw?5Surface?5Locking?5Err@ 00438a88     DxGuiFramework:DxGuiFramework.obj
 0002:00000ab8       ??_C@_0DA@CGCP@A?5DirectDraw?5SetGraphicsMode?5Err@ 00438ab8     DxGuiFramework:DxGuiFramework.obj
 0002:00000ae8       ??_C@_0CP@JFKD@A?5DirectDraw?5Initialization?5Erro@ 00438ae8     DxGuiFramework:DxGuiFramework.obj
 0002:00000b18       ??_C@_0BG@DKMH@?$CFs?6File?3?5?$CFs?0?5Line?3?5?$CFi?$AA@ 00438b18     DxGuiFramework:DxGuiFramework.obj
 0002:00000b30       ??_C@_0FB@COPJ@C?3?2Eigene?5Dateien?2Senior?5Project@ 00438b30     DxGuiFramework:DGGraphics.obj
 0002:00000b84       ??_C@_0BI@IHEP@DGGraphics?5constructor?6?$AA@ 00438b84     DxGuiFramework:DGGraphics.obj
 0002:00000b9c       ??_7DGGraphics@@6B@        00438b9c     DxGuiFramework:DGGraphics.obj
 0002:00000ba0       ??_C@_0BH@JEHD@DGGraphics?5destructor?6?$AA@ 00438ba0     DxGuiFramework:DGGraphics.obj
 0002:00000bb8       ??_C@_0CC@DBFC@The?5buffer?5mode?5flag?5is?5not?5vali@ 00438bb8     DxGuiFramework:DGGraphics.obj
 0002:00000bdc       ??_C@_0BF@HDFC@Persistence?5?$DN?$DN?5true?6?$AA@ 00438bdc     DxGuiFramework:DGGraphics.obj
 0002:00000bf4       ??_C@_0DG@IBM@Only?516?9?0?524?9?0?5and?532?9bit?5color?5@ 00438bf4     DxGuiFramework:DGGraphics.obj
 0002:00000c2c       ??_C@_0GH@PMBP@Only?516?9?0?524?9?0?5and?532?9bit?5color?5@ 00438c2c     DxGuiFramework:DGGraphics.obj
 0002:00000c94       ??_C@_0BH@KCLG@surfaceLocked?5?$DN?$DN?5false?$AA@ 00438c94     DxGuiFramework:DGGraphics.obj
 0002:00000cac       ??_C@_0BG@KOA@surfaceLocked?5?$DN?$DN?5true?$AA@ 00438cac     DxGuiFramework:DGGraphics.obj
 0002:00000cc4       ??_C@_0DH@IGHE@x?5?$DO?$DN?50?5?$CG?$CG?5x?5?$DM?5screenRes?4x?5?$CG?$CG?5y?5?$DO@ 00438cc4     DxGuiFramework:DGGraphics.obj
 0002:00000cfc       ??_C@_0FI@HOMK@x1?5?$DO?$DN?50?5?$CG?$CG?5x1?5?$DM?5screenRes?4x?5?$CG?$CG?5x@ 00438cfc     DxGuiFramework:DGGraphics.obj
 0002:00000d54       ??_C@_0FI@ENCP@x?5?$DO?$DN?50?5?$CG?$CG?5x?5?$DM?5screenRes?4x?5?$CG?$CG?5y1?5@ 00438d54     DxGuiFramework:DGGraphics.obj
 0002:00000dac       ??_C@_0ED@POIC@p2?4x?5?$DO?$DN?50?5?$CG?$CG?5p2?4x?5?$DM?5screenRes?4x?5@ 00438dac     DxGuiFramework:DGGraphics.obj
 0002:00000df0       ??_C@_0ED@CDIK@p1?4x?5?$DO?$DN?50?5?$CG?$CG?5p1?4x?5?$DM?5screenRes?4x?5@ 00438df0     DxGuiFramework:DGGraphics.obj
 0002:00000e34       ??_C@_0LF@KDGL@rect?4left?5?$DO?$DN?50?5?$CG?$CG?5rect?4left?5?$DM?5sc@ 00438e34     DxGuiFramework:DGGraphics.obj
 0002:00000eec       ??_C@_0CE@GOAG@area?4width?5?$CB?$DN?50?5?$CG?$CG?5area?4height?5?$CB@ 00438eec     DxGuiFramework:DGGraphics.obj
 0002:00000f10       ??_C@_0GM@PNAN@?$CIlocation?4x?5?$CL?5bitmap?9?$DOGetWidth?$CI?$CJ@ 00438f10     DxGuiFramework:DGGraphics.obj
 0002:00000f7c       ??_C@_0FL@IDGI@location?4x?5?$DO?$DN?50?5?$CG?$CG?5location?4x?5?$DM?5@ 00438f7c     DxGuiFramework:DGGraphics.obj
 0002:00000fd8       ??_C@_0DK@LAMF@area?4Right?$CI?$CJ?5?$DM?5screenRes?4x?5?$CG?$CG?5ar@ 00438fd8     DxGuiFramework:DGGraphics.obj
 0002:00001014       ??_C@_0FF@BCDH@area?4left?5?$DO?$DN?50?5?$CG?$CG?5area?4left?5?$DM?5sc@ 00439014     DxGuiFramework:DGGraphics.obj
 0002:0000106c       ??_7DGDisplayModeList@@6B@ 0043906c     DxGuiFramework:DGGraphics.obj
 0002:00001070       ??_7DGBitmapList@@6B@      00439070     DxGuiFramework:DGGraphics.obj
 0002:00001074       ??_C@_0CG@FGAF@mode?5?$DN?$DN?5OPAQUE?5?$HM?$HM?5mode?5?$DN?$DN?5TRANSP@ 00439074     DxGuiFramework:DGGraphics.obj
 0002:0000109c       ??_C@_0O@NKPL@Unknown?5Error?$AA@ 0043909c     DxGuiFramework:DGGraphics.obj
 0002:000010ac       ??_C@_0ED@BFC@The?5rectangle?5was?5not?5horizontal@ 004390ac     DxGuiFramework:DGGraphics.obj
 0002:000010f0       ??_C@_0EF@GMPK@This?5surface?5cannot?5be?5restored?3@ 004390f0     DxGuiFramework:DGGraphics.obj
 0002:00001138       ??_C@_0CB@IOCM@The?5operation?5was?5still?5drawing?4@ 00439138     DxGuiFramework:DGGraphics.obj
 0002:0000115c       ??_C@_0BO@CJGM@The?5video?5port?5is?5not?5active?4?$AA@ 0043915c     DxGuiFramework:DGGraphics.obj
 0002:0000117c       ??_C@_0CB@MGHA@A?5vertical?5blank?5is?5in?5progress?4@ 0043917c     DxGuiFramework:DGGraphics.obj
 0002:000011a0       ??_C@_0DB@PJFD@The?5display?5is?5currently?5in?5an?5u@ 004391a0     DxGuiFramework:DGGraphics.obj
 0002:000011d4       ??_C@_0EA@EPLN@The?5bitmask?5in?5the?5pixel?5format?5@ 004391d4     DxGuiFramework:DGGraphics.obj
 0002:00001214       ??_C@_0DB@MCJK@The?5pixel?5format?5is?5not?5supporte@ 00439214     DxGuiFramework:DGGraphics.obj
 0002:00001248       ??_C@_0CB@JFHK@This?5operation?5is?5not?5supported?4@ 00439248     DxGuiFramework:DGGraphics.obj
 0002:0000126c       ??_C@_0CC@EGOG@The?5requested?5width?5is?5too?5large@ 0043926c     DxGuiFramework:DGGraphics.obj
 0002:00001290       ??_C@_0CB@KHFA@The?5requested?5size?5is?5too?5large?4@ 00439290     DxGuiFramework:DGGraphics.obj
 0002:000012b4       ??_C@_0CD@DLAA@The?5requested?5height?5is?5too?5larg@ 004392b4     DxGuiFramework:DGGraphics.obj
 0002:000012d8       ??_C@_0CH@BMGK@The?5requested?5surface?5is?5not?5att@ 004392d8     DxGuiFramework:DGGraphics.obj
 0002:00001300       ??_C@_0DA@JBEA@The?5surface?5has?5been?5lost?3?5it?5mu@ 00439300     DxGuiFramework:DGGraphics.obj
 0002:00001330       ??_C@_0CP@PABO@Access?5to?5surface?5denied?3?5surfac@ 00439330     DxGuiFramework:DGGraphics.obj
 0002:00001360       ??_C@_0BF@FOMK@The?5surface?5is?5busy?4?$AA@ 00439360     DxGuiFramework:DGGraphics.obj
 0002:00001378       ??_C@_0CD@NLDB@The?5surface?5was?5already?5dependen@ 00439378     DxGuiFramework:DGGraphics.obj
 0002:0000139c       ??_C@_0CC@PNLJ@The?5surface?5was?5already?5attached@ 0043939c     DxGuiFramework:DGGraphics.obj
 0002:000013c0       ??_C@_0CI@BHIE@The?5specified?5clip?5region?5is?5too@ 004393c0     DxGuiFramework:DGGraphics.obj
 0002:000013e8       ??_C@_0CC@LPIB@A?5primary?5surface?5already?5exists@ 004393e8     DxGuiFramework:DGGraphics.obj
 0002:0000140c       ??_C@_0BF@BAHO@The?5palette?5is?5busy?4?$AA@ 0043940c     DxGuiFramework:DGGraphics.obj
 0002:00001424       ??_C@_0CB@KDHC@The?5specified?5overlay?5is?5hidden?4@ 00439424     DxGuiFramework:DGGraphics.obj
 0002:00001448       ??_C@_0DA@BPKG@Only?5one?5color?5key?5can?5be?5active@ 00439448     DxGuiFramework:DGGraphics.obj
 0002:00001478       ??_C@_0DA@GKAN@The?5hardware?5does?5not?5support?5cl@ 00439478     DxGuiFramework:DGGraphics.obj
 0002:000014a8       ??_C@_0FC@CMMB@Source?5and?5destination?5rectangle@ 004394a8     DxGuiFramework:DGGraphics.obj
 0002:000014fc       ??_C@_0EA@LMDP@There?5is?5not?5enough?5?$CKdisplay?$CK?5me@ 004394fc     DxGuiFramework:DGGraphics.obj
 0002:0000153c       ??_C@_0DG@FBNK@There?5is?5not?5enough?5memory?5to?5pe@ 0043953c     DxGuiFramework:DGGraphics.obj
 0002:00001574       ??_C@_0ED@NIBD@The?5hardware?5needed?5for?5this?5ope@ 00439574     DxGuiFramework:DGGraphics.obj
 0002:000015b8       ??_C@_0DL@BEAG@Overlay?5surfaces?5cannot?5be?5z?9lay@ 004395b8     DxGuiFramework:DGGraphics.obj
 0002:000015f4       ??_C@_0CH@MBFM@There?5is?5no?5z?9buffer?5hardware?5su@ 004395f4     DxGuiFramework:DGGraphics.obj
 0002:0000161c       ??_C@_0EM@DPPC@There?5is?5no?5hardware?5support?5for@ 0043961c     DxGuiFramework:DGGraphics.obj
 0002:00001668       ??_C@_0BO@LBIN@Surface?5is?5not?5palette?9based?4?$AA@ 00439668     DxGuiFramework:DGGraphics.obj
 0002:00001688       ??_C@_0BN@GDMK@Surface?5was?5not?5page?9locked?4?$AA@ 00439688     DxGuiFramework:DGGraphics.obj
 0002:000016a8       ??_C@_0BI@GPBK@Surface?5was?5not?5locked?4?$AA@ 004396a8     DxGuiFramework:DGGraphics.obj
 0002:000016c0       ??_C@_0CL@KOJG@Surface?5has?5not?5been?5allocated?5a@ 004396c0     DxGuiFramework:DGGraphics.obj
 0002:000016ec       ??_C@_0CM@HCBE@DirectDraw?5object?5has?5not?5been?5i@ 004396ec     DxGuiFramework:DGGraphics.obj
 0002:00001718       ??_C@_0CC@IPKM@The?5requested?5item?5was?5not?5found@ 00439718     DxGuiFramework:DGGraphics.obj
 0002:0000173c       ??_C@_0CA@HLAK@This?5surface?5cannot?5be?5flipped?4?$AA@ 0043973c     DxGuiFramework:DGGraphics.obj
 0002:0000175c       ??_C@_0DF@OGHM@No?5texture?9mapping?5hardware?5is?5p@ 0043975c     DxGuiFramework:DGGraphics.obj
 0002:00001794       ??_C@_0BI@NKPI@Not?5an?5overlay?5surface?4?$AA@ 00439794     DxGuiFramework:DGGraphics.obj
 0002:000017ac       ??_C@_0DA@BAHK@This?5operation?5requires?5an?58?9bit@ 004397ac     DxGuiFramework:DGGraphics.obj
 0002:000017dc       ??_C@_0DH@FOBB@This?5operation?5requires?5a?54?9bit?5@ 004397dc     DxGuiFramework:DGGraphics.obj
 0002:00001814       ??_C@_0CP@HOGL@This?5operation?5requires?5a?54?9bit?5@ 00439814     DxGuiFramework:DGGraphics.obj
 0002:00001844       ??_C@_0CL@FCPI@No?5hardware?5that?5supports?5stereo@ 00439844     DxGuiFramework:DGGraphics.obj
 0002:00001870       ??_C@_0CE@BIIC@No?5hardware?5support?5for?5stretchi@ 00439870     DxGuiFramework:DGGraphics.obj
 0002:00001894       ??_C@_0CM@JCEM@No?5stereo?5hardware?5is?5present?5or@ 00439894     DxGuiFramework:DGGraphics.obj
 0002:000018c0       ??_C@_0CO@BGOK@No?5rotation?5hardware?5is?5present?5@ 004398c0     DxGuiFramework:DGGraphics.obj
 0002:000018f0       ??_C@_0ED@CDN@No?5appropriate?5raster?9operation?5@ 004398f0     DxGuiFramework:DGGraphics.obj
 0002:00001934       ??_C@_0DD@OIMN@No?5hardware?5support?5for?516?9?5or?52@ 00439934     DxGuiFramework:DGGraphics.obj
 0002:00001968       ??_C@_0CO@PMNL@No?5palette?5object?5is?5attached?5to@ 00439968     DxGuiFramework:DGGraphics.obj
 0002:00001998       ??_C@_0CK@IIPC@No?5overlay?5hardware?5present?5or?5a@ 00439998     DxGuiFramework:DGGraphics.obj
 0002:000019c4       ??_C@_0BO@DAIK@Overlay?5is?5not?5a?5destination?4?$AA@ 004399c4     DxGuiFramework:DGGraphics.obj
 0002:000019e4       ??_C@_0CC@OBGK@Optimized?5surfaces?5not?5supported@ 004399e4     DxGuiFramework:DGGraphics.obj
 0002:00001a08       ??_C@_0CH@OLNA@No?5nonlocal?5video?5memory?5is?5avai@ 00439a08     DxGuiFramework:DGGraphics.obj
 0002:00001a30       ??_C@_0BP@BFIP@No?5monitor?5information?5exists?4?$AA@ 00439a30     DxGuiFramework:DGGraphics.obj
 0002:00001a50       ??_C@_0CP@KGIF@No?5mirroring?5hardware?5is?5present@ 00439a50     DxGuiFramework:DGGraphics.obj
 0002:00001a80       ??_C@_0EE@CKK@No?5mipmap?9capable?5texture?5mappin@ 00439a80     DxGuiFramework:DGGraphics.obj
 0002:00001ac4       ??_C@_0CE@CABA@No?5cooperative?9level?5window?5hand@ 00439ac4     DxGuiFramework:DGGraphics.obj
 0002:00001ae8       ??_C@_0BD@KGAF@No?5GDI?5is?5present?4?$AA@ 00439ae8     DxGuiFramework:DGGraphics.obj
 0002:00001afc       ??_C@_0FA@BDPH@Cannot?5create?5or?5set?5a?5device?5wi@ 00439afc     DxGuiFramework:DGGraphics.obj
 0002:00001b4c       ??_C@_0CJ@OCMJ@Flipping?5visible?5surfaces?5not?5su@ 00439b4c     DxGuiFramework:DGGraphics.obj
 0002:00001b78       ??_C@_0EA@IOCI@This?5operation?5requires?5the?5appl@ 00439b78     DxGuiFramework:DGGraphics.obj
 0002:00001bb8       ??_C@_0CC@MBLC@Software?5emulation?5not?5available@ 00439bb8     DxGuiFramework:DGGraphics.obj
 0002:00001bdc       ??_C@_0DJ@KBCG@Testing?5cannot?5proceed?5due?5to?5no@ 00439bdc     DxGuiFramework:DGGraphics.obj
 0002:00001c18       ??_C@_0ED@PKJK@DirectDraw?5support?5is?5not?5possib@ 00439c18     DxGuiFramework:DGGraphics.obj
 0002:00001c5c       ??_C@_0DA@CCAL@Hardware?9only?5DirectDraw?5creatio@ 00439c5c     DxGuiFramework:DGGraphics.obj
 0002:00001c8c       ??_C@_0DL@HOP@No?5DirectDraw?5raster?9operation?5?$CI@ 00439c8c     DxGuiFramework:DGGraphics.obj
 0002:00001cc8       ??_C@_0CL@OGAI@No?5device?5context?5exists?5for?5thi@ 00439cc8     DxGuiFramework:DGGraphics.obj
 0002:00001cf4       ??_C@_0CD@BMJ@No?5cooperative?5level?5had?5been?5se@ 00439cf4     DxGuiFramework:DGGraphics.obj
 0002:00001d18       ??_C@_0DM@KGE@There?5is?5no?5hardware?5support?5for@ 00439d18     DxGuiFramework:DGGraphics.obj
 0002:00001d54       ??_C@_0DB@BHCA@The?5surface?5does?5not?5currently?5h@ 00439d54     DxGuiFramework:DGGraphics.obj
 0002:00001d88       ??_C@_0DG@OFGO@No?5color?9conversion?5hardware?5is?5@ 00439d88     DxGuiFramework:DGGraphics.obj
 0002:00001dc0       ??_C@_0DB@GMKG@No?5DirectDrawClipper?5is?5attached@ 00439dc0     DxGuiFramework:DGGraphics.obj
 0002:00001df4       ??_C@_0BL@MGOA@No?5clip?5list?5is?5available?4?$AA@ 00439df4     DxGuiFramework:DGGraphics.obj
 0002:00001e10       ??_C@_0CA@KPPE@No?5blitter?5hardware?5is?5present?4?$AA@ 00439e10     DxGuiFramework:DGGraphics.obj
 0002:00001e30       ??_C@_0DI@OPJE@No?5alpha?9acceleration?5hardware?5i@ 00439e30     DxGuiFramework:DGGraphics.obj
 0002:00001e68       ??_C@_0CJ@PLHK@No?53?9D?5hardware?5or?5emulation?5is?5@ 00439e68     DxGuiFramework:DGGraphics.obj
 0002:00001e94       ??_C@_0EB@CLN@There?5is?5more?5data?5available?5tha@ 00439e94     DxGuiFramework:DGGraphics.obj
 0002:00001ed8       ??_C@_0CP@KMJM@This?5operation?5failed?5due?5to?5a?5l@ 00439ed8     DxGuiFramework:DGGraphics.obj
 0002:00001f08       ??_C@_0CD@FIAA@The?5surface?5was?5of?5the?5wrong?5typ@ 00439f08     DxGuiFramework:DGGraphics.obj
 0002:00001f2c       ??_C@_0CM@INPP@The?5specified?5stream?5contains?5in@ 00439f2c     DxGuiFramework:DGGraphics.obj
 0002:00001f58       ??_C@_0CE@FEII@The?5provided?5rectangle?5was?5inval@ 00439f58     DxGuiFramework:DGGraphics.obj
 0002:00001f7c       ??_C@_0ED@FLGJ@The?5position?5of?5the?5overlay?5on?5t@ 00439f7c     DxGuiFramework:DGGraphics.obj
 0002:00001fc0       ??_C@_0CI@KAKD@The?5specified?5pixel?5format?5was?5i@ 00439fc0     DxGuiFramework:DGGraphics.obj
 0002:00001fe8       ??_C@_0DM@ENPJ@One?5or?5more?5parameters?5passed?5to@ 00439fe8     DxGuiFramework:DGGraphics.obj
 0002:00002024       ??_C@_0DE@MFGE@DirectDraw?5received?5a?5pointer?5to@ 0043a024     DxGuiFramework:DGGraphics.obj
 0002:00002058       ??_C@_0DA@NMDC@DirectDraw?5does?5not?5support?5the?5@ 0043a058     DxGuiFramework:DGGraphics.obj
 0002:00002088       ??_C@_0DA@IKCO@The?5provided?5GUID?5is?5an?5invalid?5@ 0043a088     DxGuiFramework:DGGraphics.obj
 0002:000020b8       ??_C@_0DE@CLFL@DirectDraw?5does?5not?5support?5the?5@ 0043a0b8     DxGuiFramework:DGGraphics.obj
 0002:000020ec       ??_C@_0FC@PMJJ@One?5or?5more?5of?5the?5capability?5bi@ 0043a0ec     DxGuiFramework:DGGraphics.obj
 0002:00002140       ??_C@_0FC@JOIE@The?5primary?5surface?5creation?5req@ 0043a140     DxGuiFramework:DGGraphics.obj
 0002:00002194       ??_C@_0DN@MCPM@Surface?5cannot?5be?5restored?5becau@ 0043a194     DxGuiFramework:DGGraphics.obj
 0002:000021d4       ??_C@_0GG@BHJM@DirectDraw?5cannot?5restore?5becaus@ 0043a1d4     DxGuiFramework:DGGraphics.obj
 0002:0000223c       ??_C@_0DK@NABJ@The?5cooperative?9level?5window?5han@ 0043a23c     DxGuiFramework:DGGraphics.obj
 0002:00002278       ??_C@_0FC@GJAG@The?5height?5of?5the?5provided?5recta@ 0043a278     DxGuiFramework:DGGraphics.obj
 0002:000022cc       ??_C@_0CL@MIHD@An?5undefined?5error?5condition?5has@ 0043a2cc     DxGuiFramework:DGGraphics.obj
 0002:000022f8       ??_C@_0CF@PAHC@The?5data?5has?5expired?5and?5is?5inva@ 0043a2f8     DxGuiFramework:DGGraphics.obj
 0002:00002320       ??_C@_0CF@IPAG@Exclusive?5mode?5has?5already?5been?5@ 0043a320     DxGuiFramework:DGGraphics.obj
 0002:00002348       ??_C@_0EH@DLMK@An?5exception?5was?5encountered?5whi@ 0043a348     DxGuiFramework:DGGraphics.obj
 0002:00002390       ??_C@_0EH@IMAN@A?5DirectDraw?5object?5representing@ 0043a390     DxGuiFramework:DGGraphics.obj
 0002:000023d8       ??_C@_0EG@BNOO@This?5surface?5is?5owned?5by?5another@ 0043a3d8     DxGuiFramework:DGGraphics.obj
 0002:00002420       ??_C@_0DL@HPPH@A?5device?5context?5has?5already?5bee@ 0043a420     DxGuiFramework:DGGraphics.obj
 0002:0000245c       ??_C@_0CL@FHLF@This?5surface?5needs?5to?5be?5a?5compl@ 0043a45c     DxGuiFramework:DGGraphics.obj
 0002:00002488       ??_C@_0DF@LCGK@No?5support?5is?5currently?5availabl@ 0043a488     DxGuiFramework:DGGraphics.obj
 0002:000024c0       ??_C@_0CB@GJAP@No?5source?5color?5key?5has?5been?5set@ 0043a4c0     DxGuiFramework:DGGraphics.obj
 0002:000024e4       ??_C@_0GJ@POAL@The?5clip?5list?5could?5not?5be?5added@ 0043a4e4     DxGuiFramework:DGGraphics.obj
 0002:00002550       ??_C@_0BE@GDNC@Page?5unlock?5failed?4?$AA@ 0043a550     DxGuiFramework:DGGraphics.obj
 0002:00002564       ??_C@_0BC@ILFJ@Page?5lock?5failed?4?$AA@ 0043a564     DxGuiFramework:DGGraphics.obj
 0002:00002578       ??_C@_0BO@KHAM@The?5surface?5cannot?5be?5locked?4?$AA@ 0043a578     DxGuiFramework:DGGraphics.obj
 0002:00002598       ??_C@_0CD@DNKG@This?5surface?5cannot?5be?5duplicate@ 0043a598     DxGuiFramework:DGGraphics.obj
 0002:000025bc       ??_C@_0DB@EAJB@The?5Windows?5device?5context?5could@ 0043a5bc     DxGuiFramework:DGGraphics.obj
 0002:000025f0       ??_C@_0CA@NCD@The?5surface?5cannot?5be?5detached?4?$AA@ 0043a5f0     DxGuiFramework:DGGraphics.obj
 0002:00002610       ??_C@_0CA@MIM@The?5surface?5cannot?5be?5attached?4?$AA@ 0043a610     DxGuiFramework:DGGraphics.obj
 0002:00002630       ??_C@_0FG@CADH@BltFast?$CI?$CJ?5cannot?5be?5used?5with?5a?5@ 0043a630     DxGuiFramework:DGGraphics.obj
 0002:00002688       ??_C@_0DA@CEBL@DirectDraw?5object?5has?5already?5be@ 0043a688     DxGuiFramework:DGGraphics.obj
 0002:000026b8       ??_7?$DGLinkedList@VDGDisplayMode@@@@6B@ 0043a6b8     DxGuiFramework:DGGraphics.obj
 0002:000026bc       ??_7?$DGLinkedList@VDGBitmap@@@@6B@ 0043a6bc     DxGuiFramework:DGGraphics.obj
 0002:000026c0       ??_7DGSurface@@6B@         0043a6c0     DxGuiFramework:DGSurface.obj
 0002:000026c4       ??_C@_0BJ@FNFB@DxGui?5Application?5Window?$AA@ 0043a6c4     DxGuiFramework:DGApplication.obj
 0002:000026e0       ??_C@_0BE@JDI@DxGuiFrameworkClass?$AA@ 0043a6e0     DxGuiFramework:DGApplication.obj
 0002:000026f4       ??_C@_0BJ@EFNC@Application?5Constructor?6?$AA@ 0043a6f4     DxGuiFramework:DGApplication.obj
 0002:00002710       ??_7DGApplication@@6B@     0043a710     DxGuiFramework:DGApplication.obj
 0002:00002734       ??_C@_08OGL@InitApp?6?$AA@ 0043a734     DxGuiFramework:DGApplication.obj
 0002:00002740       ??_C@_0O@IPCJ@TerminateApp?6?$AA@ 0043a740     DxGuiFramework:DGApplication.obj
 0002:00002750       ??_C@_06CLEP@?$CFi?5FPS?$AA@ 0043a750     DxGuiFramework:DGApplication.obj
 0002:00002758       ??_C@_05PGGF@0?5FPS?$AA@   0043a758     DxGuiFramework:DGApplication.obj
 0002:00002760       ??_C@_07BLDH@RunApp?6?$AA@ 0043a760     DxGuiFramework:DGApplication.obj
 0002:00002768       ??_C@_0BF@OLHB@Application?5enabled?6?$AA@ 0043a768     DxGuiFramework:DGApplication.obj
 0002:00002780       ??_C@_0BG@FFBA@Application?5disabled?6?$AA@ 0043a780     DxGuiFramework:DGApplication.obj
 0002:00002798       ??_C@_0EN@OCDI@C?3?2Eigene?5Dateien?2Senior?5Project@ 0043a798     DxGuiFramework:DGFont.obj
 0002:000027e8       ??_C@_0CE@EOLN@The?5font?5?$CC?$CFs?$CC?5could?5not?5be?5creat@ 0043a7e8     DxGuiFramework:DGFont.obj
 0002:0000280c       ??_7DGFont@@6B@            0043a80c     DxGuiFramework:DGFont.obj
 0002:00002810       ??_7DGTitleBar@@6B@        0043a810     DxGuiFramework:DGTitleBar.obj
 0002:000028fc       ??_7DGEdit@@6B@            0043a8fc     DxGuiFramework:DGEdit.obj
 0002:000029cc       ??_7DGImage@@6B@           0043a9cc     DxGuiFramework:DGImage.obj
 0002:00002a9c       ??_C@_0P@LOMG@bitmap?5?$CB?$DN?5NULL?$AA@ 0043aa9c     DxGuiFramework:DGImage.obj
 0002:00002aac       ??_C@_0EO@GGLO@C?3?2Eigene?5Dateien?2Senior?5Project@ 0043aaac     DxGuiFramework:DGImage.obj
 0002:00002afc       ??_C@_0P@OIFN@DGDebugLog?4txt?$AA@ 0043aafc     DxGuiFramework:DGDebugLog.obj
 0002:00002b0c       ??_7DGDebugLog@@6B@        0043ab0c     DxGuiFramework:DGDebugLog.obj
 0002:00002b10       ??_7DGButton@@6B@          0043ab10     DxGuiFramework:DGButton.obj
 0002:00002bfc       ??_C@_0BM@BJOL@buttonType?5?$DN?$DN?5BT_TEXTBUTTON?$AA@ 0043abfc     DxGuiFramework:DGButton.obj
 0002:00002c18       ??_C@_0EP@PHD@C?3?2Eigene?5Dateien?2Senior?5Project@ 0043ac18     DxGuiFramework:DGButton.obj
 0002:00002c68       ??_7?$MsgHandlerFunction@VDGButton@@@@6B@ 0043ac68     DxGuiFramework:DGButton.obj
 0002:00002c70       ??_7DGLabel@@6B@           0043ac70     DxGuiFramework:DGLabel.obj
 0002:00002d40       ??_C@_0BF@CEGJ@DGInput?5constructor?6?$AA@ 0043ad40     DxGuiFramework:DGInput.obj
 0002:00002d58       ??_7DGInput@@6B@           0043ad58     DxGuiFramework:DGInput.obj
 0002:00002d5c       ??_C@_0BE@LCJL@DGInput?5destructor?6?$AA@ 0043ad5c     DxGuiFramework:DGInput.obj
 0002:00002d70       ??_7?$DGQueue@VInputEvent@@@@6B@ 0043ad70     DxGuiFramework:DGInput.obj
 0002:00002d74       ??_7?$DGLinkedList@VInputEvent@@@@6B@ 0043ad74     DxGuiFramework:DGInput.obj
 0002:00002d78       ??_C@_0CC@GFLA@index?5?$DO?$DN?50?5?$CG?$CG?5index?5?$DM?$DN?5numOfItem@ 0043ad78     DxGuiFramework:DGBitmapList.obj
 0002:00002d9c       ??_C@_0CB@DPDJ@index?5?$DO?$DN?50?5?$CG?$CG?5index?5?$DM?5numOfItems@ 0043ad9c     DxGuiFramework:DGBitmapList.obj
 0002:00002dc0       ??_C@_0EL@FIGC@colorDepth?5?$DN?$DN?5CD_16BIT?5?$HM?$HM?5colorD@ 0043adc0     DxGuiFramework:DGColor.obj
 0002:00002e0c       ??_C@_0EO@EPPC@C?3?2Eigene?5Dateien?2Senior?5Project@ 0043ae0c     DxGuiFramework:DGColor.obj
 0002:00002e5c       ??_C@_0BA@HJCH@luTable?5?$CB?$DN?5NULL?$AA@ 0043ae5c     DxGuiFramework:DGColor.obj
 0002:00002e6c       ??_7DGBitmap@@6B@          0043ae6c     DxGuiFramework:DGBitmap.obj
 0002:00002e70       ??_C@_0EP@PAFL@c?3?2eigene?5dateien?2senior?5project@ 0043ae70     DxGuiFramework:DGBitmap.obj
 0002:00002ec0       ??_C@_0BGC@FNDI@bitmapDimensions?4left?5?$DO?$DN?50?5?$CG?$CG?5bi@ 0043aec0     DxGuiFramework:DGBitmap.obj
 0002:00003024       ??_C@_0CJ@KBBI@?$CFs?3?5compressed?5bitmaps?5cannot?5be@ 0043b024     DxGuiFramework:DGBitmap.obj
 0002:00003050       ??_C@_0CE@JKJC@The?5file?5?$CFs?5is?5not?5a?524?9bit?5bitm@ 0043b050     DxGuiFramework:DGBitmap.obj
 0002:00003074       ??_C@_0CC@DFKC@The?5file?5?$CFs?5is?5not?5a?5bitmap?5file@ 0043b074     DxGuiFramework:DGBitmap.obj
 0002:00003098       ??_C@_0CB@JCMC@The?5file?5?$CFs?5could?5not?5be?5opened?4@ 0043b098     DxGuiFramework:DGBitmap.obj
 0002:000030c0       _KSDATAFORMAT_SUBTYPE_DIRECTMUSIC 0043b0c0     dxguid:dxguid.obj
 0002:000030d0       _KSDATAFORMAT_SUBTYPE_MIDI 0043b0d0     dxguid:dxguid.obj
 0002:000030e0       _IID_IKsControl            0043b0e0     dxguid:dxguid.obj
 0002:000030f0       _IID_IDirectMusicSegment2  0043b0f0     dxguid:dxguid.obj
 0002:00003100       _IID_IDirectMusicPerformance2 0043b100     dxguid:dxguid.obj
 0002:00003110       _IID_IDirectMusicBand      0043b110     dxguid:dxguid.obj
 0002:00003120       _IID_IDirectMusicComposer  0043b120     dxguid:dxguid.obj
 0002:00003130       _IID_IDirectMusicChordMap  0043b130     dxguid:dxguid.obj
 0002:00003140       _IID_IDirectMusicStyle     0043b140     dxguid:dxguid.obj
 0002:00003150       _IID_IDirectMusicGraph     0043b150     dxguid:dxguid.obj
 0002:00003160       _IID_IDirectMusicTool      0043b160     dxguid:dxguid.obj
 0002:00003170       _IID_IDirectMusicPerformance 0043b170     dxguid:dxguid.obj
 0002:00003180       _IID_IDirectMusicTrack     0043b180     dxguid:dxguid.obj
 0002:00003190       _IID_IDirectMusicSegmentState 0043b190     dxguid:dxguid.obj
 0002:000031a0       _IID_IDirectMusicSegment   0043b1a0     dxguid:dxguid.obj
 0002:000031b0       _IID_IDirectMusicObject    0043b1b0     dxguid:dxguid.obj
 0002:000031c0       _IID_IDirectMusicGetLoader 0043b1c0     dxguid:dxguid.obj
 0002:000031d0       _IID_IDirectMusicLoader    0043b1d0     dxguid:dxguid.obj
 0002:000031e0       _GUID_DefaultGMCollection  0043b1e0     dxguid:dxguid.obj
 0002:000031f0       _GUID_PerfAutoDownload     0043b1f0     dxguid:dxguid.obj
 0002:00003200       _GUID_PerfMasterGrooveLevel 0043b200     dxguid:dxguid.obj
 0002:00003210       _GUID_PerfMasterVolume     0043b210     dxguid:dxguid.obj
 0002:00003220       _GUID_PerfMasterTempo      0043b220     dxguid:dxguid.obj
 0002:00003230       _GUID_SeedVariations       0043b230     dxguid:dxguid.obj
 0002:00003240       _GUID_EnableTempo          0043b240     dxguid:dxguid.obj
 0002:00003250       _GUID_DisableTempo         0043b250     dxguid:dxguid.obj
 0002:00003260       _GUID_EnableTimeSig        0043b260     dxguid:dxguid.obj
 0002:00003270       _GUID_DisableTimeSig       0043b270     dxguid:dxguid.obj
 0002:00003280       _GUID_StandardMIDIFile     0043b280     dxguid:dxguid.obj
 0002:00003290       _GUID_Clear_All_Bands      0043b290     dxguid:dxguid.obj
 0002:000032a0       _GUID_Disable_Auto_Download 0043b2a0     dxguid:dxguid.obj
 0002:000032b0       _GUID_Enable_Auto_Download 0043b2b0     dxguid:dxguid.obj
 0002:000032c0       _GUID_ConnectToDLSCollection 0043b2c0     dxguid:dxguid.obj
 0002:000032d0       _GUID_Unload               0043b2d0     dxguid:dxguid.obj
 0002:000032e0       _GUID_Download             0043b2e0     dxguid:dxguid.obj
 0002:000032f0       _GUID_MuteParam            0043b2f0     dxguid:dxguid.obj
 0002:00003300       _GUID_IDirectMusicChordMap 0043b300     dxguid:dxguid.obj
 0002:00003310       _GUID_IDirectMusicBand     0043b310     dxguid:dxguid.obj
 0002:00003320       _GUID_TempoParam           0043b320     dxguid:dxguid.obj
 0002:00003330       _GUID_TimeSignature        0043b330     dxguid:dxguid.obj
 0002:00003340       _GUID_IDirectMusicStyle    0043b340     dxguid:dxguid.obj
 0002:00003350       _GUID_RhythmParam          0043b350     dxguid:dxguid.obj
 0002:00003360       _GUID_ChordParam           0043b360     dxguid:dxguid.obj
 0002:00003370       _GUID_CommandParam2        0043b370     dxguid:dxguid.obj
 0002:00003380       _GUID_CommandParam         0043b380     dxguid:dxguid.obj
 0002:00003390       _GUID_NOTIFICATION_COMMAND 0043b390     dxguid:dxguid.obj
 0002:000033a0       _GUID_NOTIFICATION_CHORD   0043b3a0     dxguid:dxguid.obj
 0002:000033b0       _GUID_NOTIFICATION_MEASUREANDBEAT 0043b3b0     dxguid:dxguid.obj
 0002:000033c0       _GUID_NOTIFICATION_PERFORMANCE 0043b3c0     dxguid:dxguid.obj
 0002:000033d0       _GUID_NOTIFICATION_SEGMENT 0043b3d0     dxguid:dxguid.obj
 0002:000033e0       _GUID_DirectMusicAllTypes  0043b3e0     dxguid:dxguid.obj
 0002:000033f0       _CLSID_DirectMusicMuteTrack 0043b3f0     dxguid:dxguid.obj
 0002:00003400       _CLSID_DirectMusicChordMapTrack 0043b400     dxguid:dxguid.obj
 0002:00003410       _CLSID_DirectMusicBand     0043b410     dxguid:dxguid.obj
 0002:00003420       _CLSID_DirectMusicBandTrack 0043b420     dxguid:dxguid.obj
 0002:00003430       _CLSID_DirectMusicLoader   0043b430     dxguid:dxguid.obj
 0002:00003440       _CLSID_DirectMusicSignPostTrack 0043b440     dxguid:dxguid.obj
 0002:00003450       _CLSID_DirectMusicComposer 0043b450     dxguid:dxguid.obj
 0002:00003460       _CLSID_DirectMusicChordMap 0043b460     dxguid:dxguid.obj
 0002:00003470       _CLSID_DirectMusicMotifTrack 0043b470     dxguid:dxguid.obj
 0002:00003480       _CLSID_DirectMusicStyleTrack 0043b480     dxguid:dxguid.obj
 0002:00003490       _CLSID_DirectMusicCommandTrack 0043b490     dxguid:dxguid.obj
 0002:000034a0       _CLSID_DirectMusicChordTrack 0043b4a0     dxguid:dxguid.obj
 0002:000034b0       _CLSID_DirectMusicStyle    0043b4b0     dxguid:dxguid.obj
 0002:000034c0       _CLSID_DirectMusicTimeSigTrack 0043b4c0     dxguid:dxguid.obj
 0002:000034d0       _CLSID_DirectMusicSysExTrack 0043b4d0     dxguid:dxguid.obj
 0002:000034e0       _CLSID_DirectMusicSeqTrack 0043b4e0     dxguid:dxguid.obj
 0002:000034f0       _CLSID_DirectMusicTempoTrack 0043b4f0     dxguid:dxguid.obj
 0002:00003500       _CLSID_DirectMusicGraph    0043b500     dxguid:dxguid.obj
 0002:00003510       _CLSID_DirectMusicSegmentState 0043b510     dxguid:dxguid.obj
 0002:00003520       _CLSID_DirectMusicSegment  0043b520     dxguid:dxguid.obj
 0002:00003530       _CLSID_DirectMusicPerformance 0043b530     dxguid:dxguid.obj
 0002:00003540       _GUID_DMUS_PROP_Volume     0043b540     dxguid:dxguid.obj
 0002:00003550       _GUID_DMUS_PROP_LegacyCaps 0043b550     dxguid:dxguid.obj
 0002:00003560       _GUID_DMUS_PROP_Effects    0043b560     dxguid:dxguid.obj
 0002:00003570       _GUID_DMUS_PROP_WavesReverb 0043b570     dxguid:dxguid.obj
 0002:00003580       _GUID_DMUS_PROP_MemorySize 0043b580     dxguid:dxguid.obj
 0002:00003590       _GUID_DMUS_PROP_WritePeriod 0043b590     dxguid:dxguid.obj
 0002:000035a0       _GUID_DMUS_PROP_WriteLatency 0043b5a0     dxguid:dxguid.obj
 0002:000035b0       _GUID_DMUS_PROP_SamplePlaybackRate 0043b5b0     dxguid:dxguid.obj
 0002:000035c0       _GUID_DMUS_PROP_SampleMemorySize 0043b5c0     dxguid:dxguid.obj
 0002:000035d0       _GUID_DMUS_PROP_SynthSink_WAVE 0043b5d0     dxguid:dxguid.obj
 0002:000035e0       _GUID_DMUS_PROP_SynthSink_DSOUND 0043b5e0     dxguid:dxguid.obj
 0002:000035f0       _GUID_DMUS_PROP_INSTRUMENT2 0043b5f0     dxguid:dxguid.obj
 0002:00003600       _GUID_DMUS_PROP_DLS2       0043b600     dxguid:dxguid.obj
 0002:00003610       _GUID_DMUS_PROP_DLS1       0043b610     dxguid:dxguid.obj
 0002:00003620       _GUID_DMUS_PROP_GS_Capable 0043b620     dxguid:dxguid.obj
 0002:00003630       _GUID_DMUS_PROP_XG_Capable 0043b630     dxguid:dxguid.obj
 0002:00003640       _GUID_DMUS_PROP_XG_Hardware 0043b640     dxguid:dxguid.obj
 0002:00003650       _GUID_DMUS_PROP_GS_Hardware 0043b650     dxguid:dxguid.obj
 0002:00003660       _GUID_DMUS_PROP_GM_Hardware 0043b660     dxguid:dxguid.obj
 0002:00003670       _IID_IDirectMusic2         0043b670     dxguid:dxguid.obj
 0002:00003680       _IID_IDirectMusicDownloadedInstrument 0043b680     dxguid:dxguid.obj
 0002:00003690       _IID_IDirectMusicInstrument 0043b690     dxguid:dxguid.obj
 0002:000036a0       _IID_IDirectMusicCollection 0043b6a0     dxguid:dxguid.obj
 0002:000036b0       _IID_IDirectMusicDownload  0043b6b0     dxguid:dxguid.obj
 0002:000036c0       _IID_IDirectMusicPortDownload 0043b6c0     dxguid:dxguid.obj
 0002:000036d0       _IID_IDirectMusicThru      0043b6d0     dxguid:dxguid.obj
 0002:000036e0       _IID_IDirectMusicPort      0043b6e0     dxguid:dxguid.obj
 0002:000036f0       _IID_IDirectMusicBuffer    0043b6f0     dxguid:dxguid.obj
 0002:00003700       _IID_IDirectMusic          0043b700     dxguid:dxguid.obj
 0002:00003710       _CLSID_DirectMusicSynth    0043b710     dxguid:dxguid.obj
 0002:00003720       _CLSID_DirectMusicCollection 0043b720     dxguid:dxguid.obj
 0002:00003730       _CLSID_DirectMusic         0043b730     dxguid:dxguid.obj
 0002:00003740       _IID_IReferenceClock       0043b740     dxguid:dxguid.obj
 0002:00003750       _DS3DALG_HRTF_LIGHT        0043b750     dxguid:dxguid.obj
 0002:00003760       _DS3DALG_HRTF_FULL         0043b760     dxguid:dxguid.obj
 0002:00003770       _DS3DALG_NO_VIRTUALIZATION 0043b770     dxguid:dxguid.obj
 0002:00003780       _IID_IKsPropertySet        0043b780     dxguid:dxguid.obj
 0002:00003790       _IID_IDirectSoundNotify    0043b790     dxguid:dxguid.obj
 0002:000037a0       _IID_IDirectSoundCaptureBuffer 0043b7a0     dxguid:dxguid.obj
 0002:000037b0       _IID_IDirectSoundCapture   0043b7b0     dxguid:dxguid.obj
 0002:000037c0       _IID_IDirectSound3DBuffer  0043b7c0     dxguid:dxguid.obj
 0002:000037d0       _IID_IDirectSound3DListener 0043b7d0     dxguid:dxguid.obj
 0002:000037e0       _IID_IDirectSoundBuffer    0043b7e0     dxguid:dxguid.obj
 0002:000037f0       _IID_IDirectSound          0043b7f0     dxguid:dxguid.obj
 0002:00003800       _CLSID_DirectSoundCapture  0043b800     dxguid:dxguid.obj
 0002:00003810       _CLSID_DirectSound         0043b810     dxguid:dxguid.obj
 0002:00003820       _DPAID_ComPort             0043b820     dxguid:dxguid.obj
 0002:00003830       _DPAID_INetPort            0043b830     dxguid:dxguid.obj
 0002:00003840       _DPAID_INetW               0043b840     dxguid:dxguid.obj
 0002:00003850       _DPAID_INet                0043b850     dxguid:dxguid.obj
 0002:00003860       _DPAID_ModemW              0043b860     dxguid:dxguid.obj
 0002:00003870       _DPAID_Modem               0043b870     dxguid:dxguid.obj
 0002:00003880       _DPAID_PhoneW              0043b880     dxguid:dxguid.obj
 0002:00003890       _DPAID_Phone               0043b890     dxguid:dxguid.obj
 0002:000038a0       _DPAID_LobbyProvider       0043b8a0     dxguid:dxguid.obj
 0002:000038b0       _DPAID_ServiceProvider     0043b8b0     dxguid:dxguid.obj
 0002:000038c0       _DPAID_TotalSize           0043b8c0     dxguid:dxguid.obj
 0002:000038d0       _DPLPROPERTY_PlayerScore   0043b8d0     dxguid:dxguid.obj
 0002:000038e0       _DPLPROPERTY_PlayerGuid    0043b8e0     dxguid:dxguid.obj
 0002:000038f0       _DPLPROPERTY_LobbyGuid     0043b8f0     dxguid:dxguid.obj
 0002:00003900       _DPLPROPERTY_MessagesSupported 0043b900     dxguid:dxguid.obj
 0002:00003910       _CLSID_DirectPlayLobby     0043b910     dxguid:dxguid.obj
 0002:00003920       _IID_IDirectPlayLobby3A    0043b920     dxguid:dxguid.obj
 0002:00003930       _IID_IDirectPlayLobby3     0043b930     dxguid:dxguid.obj
 0002:00003940       _IID_IDirectPlayLobby2A    0043b940     dxguid:dxguid.obj
 0002:00003950       _IID_IDirectPlayLobby2     0043b950     dxguid:dxguid.obj
 0002:00003960       _IID_IDirectPlayLobbyA     0043b960     dxguid:dxguid.obj
 0002:00003970       _IID_IDirectPlayLobby      0043b970     dxguid:dxguid.obj
 0002:00003980       _IID_IDirectPlay           0043b980     dxguid:dxguid.obj
 0002:00003990       _DPSPGUID_MODEM            0043b990     dxguid:dxguid.obj
 0002:000039a0       _DPSPGUID_SERIAL           0043b9a0     dxguid:dxguid.obj
 0002:000039b0       _DPSPGUID_TCPIP            0043b9b0     dxguid:dxguid.obj
 0002:000039c0       _DPSPGUID_IPX              0043b9c0     dxguid:dxguid.obj
 0002:000039d0       _CLSID_DirectPlay          0043b9d0     dxguid:dxguid.obj
 0002:000039e0       _IID_IDirectPlay4A         0043b9e0     dxguid:dxguid.obj
 0002:000039f0       _IID_IDirectPlay4          0043b9f0     dxguid:dxguid.obj
 0002:00003a00       _IID_IDirectPlay3A         0043ba00     dxguid:dxguid.obj
 0002:00003a10       _IID_IDirectPlay3          0043ba10     dxguid:dxguid.obj
 0002:00003a20       _IID_IDirectPlay2A         0043ba20     dxguid:dxguid.obj
 0002:00003a30       _IID_IDirectPlay2          0043ba30     dxguid:dxguid.obj
 0002:00003a40       _GUID_HIDClass             0043ba40     dxguid:dxguid.obj
 0002:00003a50       _GUID_MouseClass           0043ba50     dxguid:dxguid.obj
 0002:00003a60       _GUID_MediaClass           0043ba60     dxguid:dxguid.obj
 0002:00003a70       _GUID_KeyboardClass        0043ba70     dxguid:dxguid.obj
 0002:00003a80       _IID_IDirectInputPIDDriver 0043ba80     dxguid:dxguid.obj
 0002:00003a90       _IID_IDirectInputJoyConfig 0043ba90     dxguid:dxguid.obj
 0002:00003aa0       _IID_IDirectInputEffectDriver 0043baa0     dxguid:dxguid.obj
 0002:00003ab0       _GUID_CustomForce          0043bab0     dxguid:dxguid.obj
 0002:00003ac0       _GUID_Friction             0043bac0     dxguid:dxguid.obj
 0002:00003ad0       _GUID_Inertia              0043bad0     dxguid:dxguid.obj
 0002:00003ae0       _GUID_Damper               0043bae0     dxguid:dxguid.obj
 0002:00003af0       _GUID_Spring               0043baf0     dxguid:dxguid.obj
 0002:00003b00       _GUID_SawtoothDown         0043bb00     dxguid:dxguid.obj
 0002:00003b10       _GUID_SawtoothUp           0043bb10     dxguid:dxguid.obj
 0002:00003b20       _GUID_Triangle             0043bb20     dxguid:dxguid.obj
 0002:00003b30       _GUID_Sine                 0043bb30     dxguid:dxguid.obj
 0002:00003b40       _GUID_Square               0043bb40     dxguid:dxguid.obj
 0002:00003b50       _GUID_RampForce            0043bb50     dxguid:dxguid.obj
 0002:00003b60       _GUID_ConstantForce        0043bb60     dxguid:dxguid.obj
 0002:00003b70       _GUID_SysKeyboardEm2       0043bb70     dxguid:dxguid.obj
 0002:00003b80       _GUID_SysKeyboardEm        0043bb80     dxguid:dxguid.obj
 0002:00003b90       _GUID_SysMouseEm2          0043bb90     dxguid:dxguid.obj
 0002:00003ba0       _GUID_SysMouseEm           0043bba0     dxguid:dxguid.obj
 0002:00003bb0       _GUID_Joystick             0043bbb0     dxguid:dxguid.obj
 0002:00003bc0       _GUID_SysKeyboard          0043bbc0     dxguid:dxguid.obj
 0002:00003bd0       _GUID_SysMouse             0043bbd0     dxguid:dxguid.obj
 0002:00003be0       _GUID_Unknown              0043bbe0     dxguid:dxguid.obj
 0002:00003bf0       _GUID_POV                  0043bbf0     dxguid:dxguid.obj
 0002:00003c00       _GUID_Key                  0043bc00     dxguid:dxguid.obj
 0002:00003c10       _GUID_Button               0043bc10     dxguid:dxguid.obj
 0002:00003c20       _GUID_Slider               0043bc20     dxguid:dxguid.obj
 0002:00003c30       _GUID_RzAxis               0043bc30     dxguid:dxguid.obj
 0002:00003c40       _GUID_RyAxis               0043bc40     dxguid:dxguid.obj
 0002:00003c50       _GUID_RxAxis               0043bc50     dxguid:dxguid.obj
 0002:00003c60       _GUID_ZAxis                0043bc60     dxguid:dxguid.obj
 0002:00003c70       _GUID_YAxis                0043bc70     dxguid:dxguid.obj
 0002:00003c80       _GUID_XAxis                0043bc80     dxguid:dxguid.obj
 0002:00003c90       _IID_IDirectInputDevice7W  0043bc90     dxguid:dxguid.obj
 0002:00003ca0       _IID_IDirectInputDevice7A  0043bca0     dxguid:dxguid.obj
 0002:00003cb0       _IID_IDirectInputEffect    0043bcb0     dxguid:dxguid.obj
 0002:00003cc0       _IID_IDirectInputDevice2W  0043bcc0     dxguid:dxguid.obj
 0002:00003cd0       _IID_IDirectInputDevice2A  0043bcd0     dxguid:dxguid.obj
 0002:00003ce0       _IID_IDirectInputDeviceW   0043bce0     dxguid:dxguid.obj
 0002:00003cf0       _IID_IDirectInputDeviceA   0043bcf0     dxguid:dxguid.obj
 0002:00003d00       _IID_IDirectInput7W        0043bd00     dxguid:dxguid.obj
 0002:00003d10       _IID_IDirectInput7A        0043bd10     dxguid:dxguid.obj
 0002:00003d20       _IID_IDirectInput2W        0043bd20     dxguid:dxguid.obj
 0002:00003d30       _IID_IDirectInput2A        0043bd30     dxguid:dxguid.obj
 0002:00003d40       _IID_IDirectInputW         0043bd40     dxguid:dxguid.obj
 0002:00003d50       _IID_IDirectInputA         0043bd50     dxguid:dxguid.obj
 0002:00003d60       _CLSID_DirectInputDevice   0043bd60     dxguid:dxguid.obj
 0002:00003d70       _CLSID_DirectInput         0043bd70     dxguid:dxguid.obj
 0002:00003d80       _TID_DXFILEHeader          0043bd80     dxguid:dxguid.obj
 0002:00003d90       _IID_IDirectXFileBinary    0043bd90     dxguid:dxguid.obj
 0002:00003da0       _IID_IDirectXFileDataReference 0043bda0     dxguid:dxguid.obj
 0002:00003db0       _IID_IDirectXFileData      0043bdb0     dxguid:dxguid.obj
 0002:00003dc0       _IID_IDirectXFileObject    0043bdc0     dxguid:dxguid.obj
 0002:00003dd0       _IID_IDirectXFileSaveObject 0043bdd0     dxguid:dxguid.obj
 0002:00003de0       _IID_IDirectXFileEnumObject 0043bde0     dxguid:dxguid.obj
 0002:00003df0       _IID_IDirectXFile          0043bdf0     dxguid:dxguid.obj
 0002:00003e00       _CLSID_CDirectXFile        0043be00     dxguid:dxguid.obj
 0002:00003e10       _TID_D3DRMRightHanded      0043be10     dxguid:dxguid.obj
 0002:00003e20       _TID_D3DRMPropertyBag      0043be20     dxguid:dxguid.obj
 0002:00003e30       _TID_D3DRMStringProperty   0043be30     dxguid:dxguid.obj
 0002:00003e40       _TID_D3DRMExternalVisual   0043be40     dxguid:dxguid.obj
 0002:00003e50       _TID_D3DRMProgressiveMesh  0043be50     dxguid:dxguid.obj
 0002:00003e60       _TID_D3DRMUrl              0043be60     dxguid:dxguid.obj
 0002:00003e70       _TID_D3DRMInlineData       0043be70     dxguid:dxguid.obj
 0002:00003e80       _TID_D3DRMLightAttenuation 0043be80     dxguid:dxguid.obj
 0002:00003e90       _TID_D3DRMLightPenumbra    0043be90     dxguid:dxguid.obj
 0002:00003ea0       _TID_D3DRMLightRange       0043bea0     dxguid:dxguid.obj
 0002:00003eb0       _TID_D3DRMLightUmbra       0043beb0     dxguid:dxguid.obj
 0002:00003ec0       _TID_D3DRMAppData          0043bec0     dxguid:dxguid.obj
 0002:00003ed0       _TID_D3DRMCamera           0043bed0     dxguid:dxguid.obj
 0002:00003ee0       _TID_D3DRMLight            0043bee0     dxguid:dxguid.obj
 0002:00003ef0       _TID_D3DRMFrameRotation    0043bef0     dxguid:dxguid.obj
 0002:00003f00       _TID_D3DRMFrameVelocity    0043bf00     dxguid:dxguid.obj
 0002:00003f10       _TID_D3DRMFramePosition    0043bf10     dxguid:dxguid.obj
 0002:00003f20       _TID_D3DRMAnimationOptions 0043bf20     dxguid:dxguid.obj
 0002:00003f30       _TID_D3DRMTimedFloatKeys   0043bf30     dxguid:dxguid.obj
 0002:00003f40       _TID_D3DRMBoolean2d        0043bf40     dxguid:dxguid.obj
 0002:00003f50       _TID_D3DRMMeshFaceWraps    0043bf50     dxguid:dxguid.obj
 0002:00003f60       _TID_D3DRMBoolean          0043bf60     dxguid:dxguid.obj
 0002:00003f70       _TID_D3DRMMaterialWrap     0043bf70     dxguid:dxguid.obj
 0002:00003f80       _TID_D3DRMMeshVertexColors 0043bf80     dxguid:dxguid.obj
 0002:00003f90       _TID_D3DRMIndexedColor     0043bf90     dxguid:dxguid.obj
 0002:00003fa0       _TID_D3DRMTextureReference 0043bfa0     dxguid:dxguid.obj
 0002:00003fb0       _TID_D3DRMTextureFilename  0043bfb0     dxguid:dxguid.obj
 0002:00003fc0       _TID_D3DRMGuid             0043bfc0     dxguid:dxguid.obj
 0002:00003fd0       _TID_D3DRMColorRGB         0043bfd0     dxguid:dxguid.obj
 0002:00003fe0       _TID_D3DRMColorRGBA        0043bfe0     dxguid:dxguid.obj
 0002:00003ff0       _TID_D3DRMMaterialPower    0043bff0     dxguid:dxguid.obj
 0002:00004000       _TID_D3DRMMaterialEmissiveColor 0043c000     dxguid:dxguid.obj
 0002:00004010       _TID_D3DRMMaterialSpecularColor 0043c010     dxguid:dxguid.obj
 0002:00004020       _TID_D3DRMMaterialDiffuseColor 0043c020     dxguid:dxguid.obj
 0002:00004030       _TID_D3DRMMaterialAmbientColor 0043c030     dxguid:dxguid.obj
 0002:00004040       _TID_D3DRMFloatKeys        0043c040     dxguid:dxguid.obj
 0002:00004050       _TID_D3DRMAnimationKey     0043c050     dxguid:dxguid.obj
 0002:00004060       _TID_D3DRMAnimationSet     0043c060     dxguid:dxguid.obj
 0002:00004070       _TID_D3DRMAnimation        0043c070     dxguid:dxguid.obj
 0002:00004080       _TID_D3DRMMatrix4x4        0043c080     dxguid:dxguid.obj
 0002:00004090       _TID_D3DRMCoords2d         0043c090     dxguid:dxguid.obj
 0002:000040a0       _TID_D3DRMMeshNormals      0043c0a0     dxguid:dxguid.obj
 0002:000040b0       _TID_D3DRMMeshTextureCoords 0043c0b0     dxguid:dxguid.obj
 0002:000040c0       _TID_D3DRMMeshMaterialList 0043c0c0     dxguid:dxguid.obj
 0002:000040d0       _TID_D3DRMFrameTransformMatrix 0043c0d0     dxguid:dxguid.obj
 0002:000040e0       _TID_D3DRMFrame            0043c0e0     dxguid:dxguid.obj
 0002:000040f0       _TID_D3DRMMaterialArray    0043c0f0     dxguid:dxguid.obj
 0002:00004100       _TID_D3DRMMaterial         0043c100     dxguid:dxguid.obj
 0002:00004110       _TID_D3DRMMeshFace         0043c110     dxguid:dxguid.obj
 0002:00004120       _TID_D3DRMVector           0043c120     dxguid:dxguid.obj
 0002:00004130       _TID_D3DRMMesh             0043c130     dxguid:dxguid.obj
 0002:00004140       _TID_D3DRMInfo             0043c140     dxguid:dxguid.obj
 0002:00004150       _IID_IDirect3DRMWinDevice  0043c150     dxguid:dxguid.obj
 0002:00004160       _CLSID_CDirect3DRM         0043c160     dxguid:dxguid.obj
 0002:00004170       _IID_IDirect3DRM3          0043c170     dxguid:dxguid.obj
 0002:00004180       _IID_IDirect3DRM2          0043c180     dxguid:dxguid.obj
 0002:00004190       _IID_IDirect3DRM           0043c190     dxguid:dxguid.obj
 0002:000041a0       _IID_IDirect3DRMClippedVisual 0043c1a0     dxguid:dxguid.obj
 0002:000041b0       _IID_IDirect3DRMPicked2Array 0043c1b0     dxguid:dxguid.obj
 0002:000041c0       _IID_IDirect3DRMProgressiveMesh 0043c1c0     dxguid:dxguid.obj
 0002:000041d0       _IID_IDirect3DRMInterpolator 0043c1d0     dxguid:dxguid.obj
 0002:000041e0       _IID_IDirect3DRMShadow2    0043c1e0     dxguid:dxguid.obj
 0002:000041f0       _IID_IDirect3DRMShadow     0043c1f0     dxguid:dxguid.obj
 0002:00004200       _IID_IDirect3DRMUserVisual 0043c200     dxguid:dxguid.obj
 0002:00004210       _IID_IDirect3DRMAnimationArray 0043c210     dxguid:dxguid.obj
 0002:00004220       _IID_IDirect3DRMFaceArray  0043c220     dxguid:dxguid.obj
 0002:00004230       _IID_IDirect3DRMPickedArray 0043c230     dxguid:dxguid.obj
 0002:00004240       _IID_IDirect3DRMLightArray 0043c240     dxguid:dxguid.obj
 0002:00004250       _IID_IDirect3DRMVisualArray 0043c250     dxguid:dxguid.obj
 0002:00004260       _IID_IDirect3DRMFrameArray 0043c260     dxguid:dxguid.obj
 0002:00004270       _IID_IDirect3DRMViewportArray 0043c270     dxguid:dxguid.obj
 0002:00004280       _IID_IDirect3DRMDeviceArray 0043c280     dxguid:dxguid.obj
 0002:00004290       _IID_IDirect3DRMObjectArray 0043c290     dxguid:dxguid.obj
 0002:000042a0       _IID_IDirect3DRMAnimationSet2 0043c2a0     dxguid:dxguid.obj
 0002:000042b0       _IID_IDirect3DRMAnimationSet 0043c2b0     dxguid:dxguid.obj
 0002:000042c0       _IID_IDirect3DRMAnimation2 0043c2c0     dxguid:dxguid.obj
 0002:000042d0       _IID_IDirect3DRMAnimation  0043c2d0     dxguid:dxguid.obj
 0002:000042e0       _IID_IDirect3DRMMaterial2  0043c2e0     dxguid:dxguid.obj
 0002:000042f0       _IID_IDirect3DRMMaterial   0043c2f0     dxguid:dxguid.obj
 0002:00004300       _IID_IDirect3DRMWrap       0043c300     dxguid:dxguid.obj
 0002:00004310       _IID_IDirect3DRMTexture3   0043c310     dxguid:dxguid.obj
 0002:00004320       _IID_IDirect3DRMTexture2   0043c320     dxguid:dxguid.obj
 0002:00004330       _IID_IDirect3DRMTexture    0043c330     dxguid:dxguid.obj
 0002:00004340       _IID_IDirect3DRMLight      0043c340     dxguid:dxguid.obj
 0002:00004350       _IID_IDirect3DRMFace2      0043c350     dxguid:dxguid.obj
 0002:00004360       _IID_IDirect3DRMFace       0043c360     dxguid:dxguid.obj
 0002:00004370       _IID_IDirect3DRMMeshBuilder3 0043c370     dxguid:dxguid.obj
 0002:00004380       _IID_IDirect3DRMMeshBuilder2 0043c380     dxguid:dxguid.obj
 0002:00004390       _IID_IDirect3DRMMeshBuilder 0043c390     dxguid:dxguid.obj
 0002:000043a0       _IID_IDirect3DRMMesh       0043c3a0     dxguid:dxguid.obj
 0002:000043b0       _IID_IDirect3DRMVisual     0043c3b0     dxguid:dxguid.obj
 0002:000043c0       _IID_IDirect3DRMFrame3     0043c3c0     dxguid:dxguid.obj
 0002:000043d0       _IID_IDirect3DRMFrame2     0043c3d0     dxguid:dxguid.obj
 0002:000043e0       _IID_IDirect3DRMFrame      0043c3e0     dxguid:dxguid.obj
 0002:000043f0       _IID_IDirect3DRMViewport2  0043c3f0     dxguid:dxguid.obj
 0002:00004400       _IID_IDirect3DRMViewport   0043c400     dxguid:dxguid.obj
 0002:00004410       _IID_IDirect3DRMDevice3    0043c410     dxguid:dxguid.obj
 0002:00004420       _IID_IDirect3DRMDevice2    0043c420     dxguid:dxguid.obj
 0002:00004430       _IID_IDirect3DRMDevice     0043c430     dxguid:dxguid.obj
 0002:00004440       _IID_IDirect3DRMObject2    0043c440     dxguid:dxguid.obj
 0002:00004450       _IID_IDirect3DRMObject     0043c450     dxguid:dxguid.obj
 0002:00004460       _CLSID_CDirect3DRMClippedVisual 0043c460     dxguid:dxguid.obj
 0002:00004470       _CLSID_CDirect3DRMProgressiveMesh 0043c470     dxguid:dxguid.obj
 0002:00004480       _CLSID_CDirect3DRMTextureInterpolator 0043c480     dxguid:dxguid.obj
 0002:00004490       _CLSID_CDirect3DRMMaterialInterpolator 0043c490     dxguid:dxguid.obj
 0002:000044a0       _CLSID_CDirect3DRMLightInterpolator 0043c4a0     dxguid:dxguid.obj
 0002:000044b0       _CLSID_CDirect3DRMMeshInterpolator 0043c4b0     dxguid:dxguid.obj
 0002:000044c0       _CLSID_CDirect3DRMFrameInterpolator 0043c4c0     dxguid:dxguid.obj
 0002:000044d0       _CLSID_CDirect3DRMViewportInterpolator 0043c4d0     dxguid:dxguid.obj
 0002:000044e0       _CLSID_CDirect3DRMShadow   0043c4e0     dxguid:dxguid.obj
 0002:000044f0       _CLSID_CDirect3DRMUserVisual 0043c4f0     dxguid:dxguid.obj
 0002:00004500       _CLSID_CDirect3DRMAnimationSet 0043c500     dxguid:dxguid.obj
 0002:00004510       _CLSID_CDirect3DRMAnimation 0043c510     dxguid:dxguid.obj
 0002:00004520       _CLSID_CDirect3DRMMaterial 0043c520     dxguid:dxguid.obj
 0002:00004530       _CLSID_CDirect3DRMWrap     0043c530     dxguid:dxguid.obj
 0002:00004540       _CLSID_CDirect3DRMTexture  0043c540     dxguid:dxguid.obj
 0002:00004550       _CLSID_CDirect3DRMLight    0043c550     dxguid:dxguid.obj
 0002:00004560       _CLSID_CDirect3DRMFace     0043c560     dxguid:dxguid.obj
 0002:00004570       _CLSID_CDirect3DRMMeshBuilder 0043c570     dxguid:dxguid.obj
 0002:00004580       _CLSID_CDirect3DRMMesh     0043c580     dxguid:dxguid.obj
 0002:00004590       _CLSID_CDirect3DRMFrame    0043c590     dxguid:dxguid.obj
 0002:000045a0       _CLSID_CDirect3DRMViewport 0043c5a0     dxguid:dxguid.obj
 0002:000045b0       _CLSID_CDirect3DRMDevice   0043c5b0     dxguid:dxguid.obj
 0002:000045c0       _GUID_DDMoreCaps           0043c5c0     dxguid:dxguid.obj
 0002:000045d0       _GUID_Miscellaneous2Callbacks 0043c5d0     dxguid:dxguid.obj
 0002:000045e0       _GUID_MotionCompCallbacks  0043c5e0     dxguid:dxguid.obj
 0002:000045f0       _GUID_D3DParseUnknownCommandCallback 0043c5f0     dxguid:dxguid.obj
 0002:00004600       _GUID_UserModeDriverPassword 0043c600     dxguid:dxguid.obj
 0002:00004610       _GUID_UserModeDriverInfo   0043c610     dxguid:dxguid.obj
 0002:00004620       _GUID_OptSurfaceUmodeInfo  0043c620     dxguid:dxguid.obj
 0002:00004630       _GUID_OptSurfaceKmodeInfo  0043c630     dxguid:dxguid.obj
 0002:00004640       _GUID_DDStereoMode         0043c640     dxguid:dxguid.obj
 0002:00004650       _GUID_DDMoreSurfaceCaps    0043c650     dxguid:dxguid.obj
 0002:00004660       _GUID_ZPixelFormats        0043c660     dxguid:dxguid.obj
 0002:00004670       _GUID_D3DExtendedCaps      0043c670     dxguid:dxguid.obj
 0002:00004680       _GUID_KernelCaps           0043c680     dxguid:dxguid.obj
 0002:00004690       _GUID_KernelCallbacks      0043c690     dxguid:dxguid.obj
 0002:000046a0       _GUID_NonLocalVidMemCaps   0043c6a0     dxguid:dxguid.obj
 0002:000046b0       _GUID_D3DCallbacks3        0043c6b0     dxguid:dxguid.obj
 0002:000046c0       _GUID_D3DCallbacks2        0043c6c0     dxguid:dxguid.obj
 0002:000046d0       _GUID_VideoPortCaps        0043c6d0     dxguid:dxguid.obj
 0002:000046e0       _GUID_ColorControlCallbacks 0043c6e0     dxguid:dxguid.obj
 0002:000046f0       _GUID_VideoPortCallbacks   0043c6f0     dxguid:dxguid.obj
 0002:00004700       _GUID_MiscellaneousCallbacks 0043c700     dxguid:dxguid.obj
 0002:00004710       _IID_IDirect3DVertexBuffer7 0043c710     dxguid:dxguid.obj
 0002:00004720       _IID_IDirect3DVertexBuffer 0043c720     dxguid:dxguid.obj
 0002:00004730       _IID_IDirect3DViewport3    0043c730     dxguid:dxguid.obj
 0002:00004740       _IID_IDirect3DViewport2    0043c740     dxguid:dxguid.obj
 0002:00004750       _IID_IDirect3DViewport     0043c750     dxguid:dxguid.obj
 0002:00004760       _IID_IDirect3DExecuteBuffer 0043c760     dxguid:dxguid.obj
 0002:00004770       _IID_IDirect3DMaterial3    0043c770     dxguid:dxguid.obj
 0002:00004780       _IID_IDirect3DMaterial2    0043c780     dxguid:dxguid.obj
 0002:00004790       _IID_IDirect3DMaterial     0043c790     dxguid:dxguid.obj
 0002:000047a0       _IID_IDirect3DLight        0043c7a0     dxguid:dxguid.obj
 0002:000047b0       _IID_IDirect3DTexture2     0043c7b0     dxguid:dxguid.obj
 0002:000047c0       _IID_IDirect3DTexture      0043c7c0     dxguid:dxguid.obj
 0002:000047d0       _IID_IDirect3DDevice7      0043c7d0     dxguid:dxguid.obj
 0002:000047e0       _IID_IDirect3DDevice3      0043c7e0     dxguid:dxguid.obj
 0002:000047f0       _IID_IDirect3DDevice2      0043c7f0     dxguid:dxguid.obj
 0002:00004800       _IID_IDirect3DDevice       0043c800     dxguid:dxguid.obj
 0002:00004810       _IID_IDirect3DTnLHalDevice 0043c810     dxguid:dxguid.obj
 0002:00004820       _IID_IDirect3DNullDevice   0043c820     dxguid:dxguid.obj
 0002:00004830       _IID_IDirect3DRefDevice    0043c830     dxguid:dxguid.obj
 0002:00004840       _IID_IDirect3DMMXDevice    0043c840     dxguid:dxguid.obj
 0002:00004850       _IID_IDirect3DHALDevice    0043c850     dxguid:dxguid.obj
 0002:00004860       _IID_IDirect3DRGBDevice    0043c860     dxguid:dxguid.obj
 0002:00004870       _IID_IDirect3DRampDevice   0043c870     dxguid:dxguid.obj
 0002:00004880       _IID_IDirect3D7            0043c880     dxguid:dxguid.obj
 0002:00004890       _IID_IDirect3D3            0043c890     dxguid:dxguid.obj
 0002:000048a0       _IID_IDirect3D2            0043c8a0     dxguid:dxguid.obj
 0002:000048b0       _IID_IDirect3D             0043c8b0     dxguid:dxguid.obj
 0002:000048c0       _IID_IDirectDrawVideoAccelerator 0043c8c0     dxguid:dxguid.obj
 0002:000048d0       _IID_IDDVideoAcceleratorContainer 0043c8d0     dxguid:dxguid.obj
 0002:000048e0       _IID_IDirectDrawSurfaceKernel 0043c8e0     dxguid:dxguid.obj
 0002:000048f0       _IID_IDirectDrawKernel     0043c8f0     dxguid:dxguid.obj
 0002:00004900       _DDVPTYPE_PHILIPS          0043c900     dxguid:dxguid.obj
 0002:00004910       _DDVPTYPE_BROOKTREE        0043c910     dxguid:dxguid.obj
 0002:00004920       _DDVPTYPE_CCIR656          0043c920     dxguid:dxguid.obj
 0002:00004930       _DDVPTYPE_E_HREFL_VREFL    0043c930     dxguid:dxguid.obj
 0002:00004940       _DDVPTYPE_E_HREFL_VREFH    0043c940     dxguid:dxguid.obj
 0002:00004950       _DDVPTYPE_E_HREFH_VREFL    0043c950     dxguid:dxguid.obj
 0002:00004960       _DDVPTYPE_E_HREFH_VREFH    0043c960     dxguid:dxguid.obj
 0002:00004970       _IID_IDirectDrawVideoPort  0043c970     dxguid:dxguid.obj
 0002:00004980       _IID_IDDVideoPortContainer 0043c980     dxguid:dxguid.obj
 0002:00004990       _IID_IDirectDrawGammaControl 0043c990     dxguid:dxguid.obj
 0002:000049a0       _IID_IDirectDrawColorControl 0043c9a0     dxguid:dxguid.obj
 0002:000049b0       _IID_IDirectDrawClipper    0043c9b0     dxguid:dxguid.obj
 0002:000049c0       _IID_IDirectDrawPalette    0043c9c0     dxguid:dxguid.obj
 0002:000049d0       _IID_IDirectDrawPalette2   0043c9d0     dxguid:dxguid.obj
 0002:000049e0       _IID_IDirectDrawOptSurface 0043c9e0     dxguid:dxguid.obj
 0002:000049f0       _GUID_DirectDrawPaletteStream 0043c9f0     dxguid:dxguid.obj
 0002:00004a00       _GUID_DirectDrawSurfaceStream 0043ca00     dxguid:dxguid.obj
 0002:00004a10       _IID_IDirectDrawFactory2   0043ca10     dxguid:dxguid.obj
 0002:00004a20       _CLSID_DirectDrawFactory2  0043ca20     dxguid:dxguid.obj
 0002:00004a30       _IID_IDirectDrawSurfaceNew 0043ca30     dxguid:dxguid.obj
 0002:00004a40       _IID_IDirectDrawSurface7   0043ca40     dxguid:dxguid.obj
 0002:00004a50       _IID_IDirectDrawSurface4   0043ca50     dxguid:dxguid.obj
 0002:00004a60       _IID_IDirectDrawSurface3   0043ca60     dxguid:dxguid.obj
 0002:00004a70       _IID_IDirectDrawSurface2   0043ca70     dxguid:dxguid.obj
 0002:00004a80       _IID_IDirectDrawSurface    0043ca80     dxguid:dxguid.obj
 0002:00004a90       _IID_IDirectDraw7          0043ca90     dxguid:dxguid.obj
 0002:00004aa0       _IID_IDirectDraw4          0043caa0     dxguid:dxguid.obj
 0002:00004ab0       _IID_IDirectDraw2          0043cab0     dxguid:dxguid.obj
 0002:00004ac0       _IID_IDirectDraw           0043cac0     dxguid:dxguid.obj
 0002:00004ad0       _CLSID_DirectDrawClipper   0043cad0     dxguid:dxguid.obj
 0002:00004ae0       _CLSID_DirectDraw7         0043cae0     dxguid:dxguid.obj
 0002:00004af0       _CLSID_DirectDraw          0043caf0     dxguid:dxguid.obj
 0002:00004b04       ??_7fstream@@6B@           0043cb04     libcid:fstream.obj
 0002:00004b08       ??_C@_0M@KAFM@fstream?4cpp?$AA@ 0043cb08     libcid:fstream.obj
 0002:00004b14       ??_8fstream@@7Bostream@@@  0043cb14     libcid:fstream.obj
 0002:00004b1c       ??_8fstream@@7Bistream@@@  0043cb1c     libcid:fstream.obj
 0002:00004b24       ?openprot@filebuf@@2HB     0043cb24     libcid:filebuf.obj
 0002:00004b28       ?sh_none@filebuf@@2HB      0043cb28     libcid:filebuf.obj
 0002:00004b2c       ?sh_read@filebuf@@2HB      0043cb2c     libcid:filebuf.obj
 0002:00004b30       ?sh_write@filebuf@@2HB     0043cb30     libcid:filebuf.obj
 0002:00004b34       ?binary@filebuf@@2HB       0043cb34     libcid:filebuf.obj
 0002:00004b38       ?text@filebuf@@2HB         0043cb38     libcid:filebuf.obj
 0002:00004b40       ??_7filebuf@@6B@           0043cb40     libcid:filebuf.obj
 0002:00004b6c       ?basefield@ios@@2JB        0043cb6c     libcid:_ios.obj
 0002:00004b70       ?adjustfield@ios@@2JB      0043cb70     libcid:_ios.obj
 0002:00004b74       ?floatfield@ios@@2JB       0043cb74     libcid:_ios.obj
 0002:00004b7c       ??_7ios@@6B@               0043cb7c     libcid:_ios.obj
 0002:00004b80       ??_C@_08EOMJ@_ios?4cpp?$AA@ 0043cb80     libcid:_ios.obj
 0002:00004b90       ??_7ostream@@6B@           0043cb90     libcid:ostream.obj
 0002:00004b94       ??_8ostream@@7B@           0043cb94     libcid:ostream.obj
 0002:00004ba0       ??_7ostream_withassign@@6B@ 0043cba0     libcid:ostream.obj
 0002:00004ba4       ??_8ostream_withassign@@7B@ 0043cba4     libcid:ostream.obj
 0002:00004bb0       ??_7iostream@@6B@          0043cbb0     libcid:_iostrea.obj
 0002:00004bb4       ??_8iostream@@7Bostream@@@ 0043cbb4     libcid:_iostrea.obj
 0002:00004bbc       ??_8iostream@@7Bistream@@@ 0043cbbc     libcid:_iostrea.obj
 0002:00004bc4       ??_C@_0N@INO@filebuf1?4cpp?$AA@ 0043cbc4     libcid:filebuf1.obj
 0002:00004bd8       ??_7streambuf@@6B@         0043cbd8     libcid:streamb.obj
 0002:00004c04       ??_C@_0M@DAMI@streamb?4cpp?$AA@ 0043cc04     libcid:streamb.obj
 0002:00004c14       ??_7istream@@6B@           0043cc14     libcid:istream.obj
 0002:00004c18       ??_8istream@@7B@           0043cc18     libcid:istream.obj
 0002:00004c24       ??_7istream_withassign@@6B@ 0043cc24     libcid:istream.obj
 0002:00004c28       ??_8istream_withassign@@7B@ 0043cc28     libcid:istream.obj
 0002:00004c30       ??_C@_0O@FHMD@i386?2chkesp?4c?$AA@ 0043cc30     LIBCD:chkesp.obj
 0002:00004c40       ??_C@_0NM@ELEE@The?5value?5of?5ESP?5was?5not?5properl@ 0043cc40     LIBCD:chkesp.obj
 0002:00004d1c       ??_C@_08CEA@onexit?4c?$AA@ 0043cd1c     LIBCD:onexit.obj
 0002:00004d28       ??_C@_0P@LNLA@format?5?$CB?$DN?5NULL?$AA@ 0043cd28     LIBCD:sprintf.obj
 0002:00004d38       ??_C@_09NEAG@sprintf?4c?$AA@ 0043cd38     LIBCD:sprintf.obj
 0002:00004d44       ??_C@_0P@OOIN@string?5?$CB?$DN?5NULL?$AA@ 0043cd44     LIBCD:sprintf.obj
 0002:00004d64       ??_C@_02JJJH@?6?6?$AA@     0043cd64     LIBCD:assert.obj
 0002:00004d68       ??_C@_01BJG@?6?$AA@        0043cd68     LIBCD:assert.obj
 0002:00004d6c       ??_C@_03NAME@?4?4?4?$AA@   0043cd6c     LIBCD:assert.obj
 0002:00004d70       ??_C@_0CF@JPDF@Microsoft?5Visual?5C?$CL?$CL?5Runtime?5Lib@ 0043cd70     LIBCD:assert.obj
 0002:00004d98       ??_C@_0DN@MHHJ@?$CIPress?5Retry?5to?5debug?5the?5applic@ 0043cd98     LIBCD:assert.obj
 0002:00004dd8       ??_C@_0HA@EJLJ@For?5information?5on?5how?5your?5prog@ 0043cdd8     LIBCD:assert.obj
 0002:00004e48       ??_C@_0N@NOAB@Expression?3?5?$AA@ 0043ce48     LIBCD:assert.obj
 0002:00004e58       ??_C@_06JMOL@Line?3?5?$AA@ 0043ce58     LIBCD:assert.obj
 0002:00004e60       ??_C@_06FAAO@File?3?5?$AA@ 0043ce60     LIBCD:assert.obj
 0002:00004e68       ??_C@_0BH@NNCD@?$DMprogram?5name?5unknown?$DO?$AA@ 0043ce68     LIBCD:assert.obj
 0002:00004e80       ??_C@_09PIFG@Program?3?5?$AA@ 0043ce80     LIBCD:assert.obj
 0002:00004e8c       ??_C@_0BC@OIMC@Assertion?5failed?$CB?$AA@ 0043ce8c     LIBCD:assert.obj
 0002:00004ea4       ??_7type_info@@6B@         0043cea4     LIBCD:typinfo.obj
 0002:00004ec8       ??_C@_08KFDJ@ioinit?4c?$AA@ 0043cec8     LIBCD:ioinit.obj
 0002:00004ed4       ??_C@_07HPAH@_file?4c?$AA@ 0043ced4     LIBCD:_file.obj
 0002:00004edc       ??_C@_06DPMO@Client?$AA@   0043cedc     LIBCD:dbgheap.obj
 0002:00004ee4       ??_C@_06BAFM@Ignore?$AA@   0043cee4     LIBCD:dbgheap.obj
 0002:00004eec       ??_C@_03DICE@CRT?$AA@      0043ceec     LIBCD:dbgheap.obj
 0002:00004ef0       ??_C@_06BILL@Normal?$AA@   0043cef0     LIBCD:dbgheap.obj
 0002:00004ef8       ??_C@_04NEN@Free?$AA@      0043cef8     LIBCD:dbgheap.obj
 0002:00004f00       ??_C@_0DC@CGID@Error?3?5memory?5allocation?3?5bad?5me@ 0043cf00     LIBCD:dbgheap.obj
 0002:00004f34       ??_C@_0CE@FMIA@Invalid?5allocation?5size?3?5?$CFu?5byte@ 0043cf34     LIBCD:dbgheap.obj
 0002:00004f58       ??_C@_02DILL@?$CFs?$AA@    0043cf58     LIBCD:dbgheap.obj
 0002:00004f5c       ??_C@_0CB@CPBI@Client?5hook?5allocation?5failure?4?6@ 0043cf5c     LIBCD:dbgheap.obj
 0002:00004f80       ??_C@_0DF@DKHF@Client?5hook?5allocation?5failure?5a@ 0043cf80     LIBCD:dbgheap.obj
 0002:00004fb8       ??_C@_09IMJC@dbgheap?4c?$AA@ 0043cfb8     LIBCD:dbgheap.obj
 0002:00004fc4       ??_C@_0BC@EPKL@_CrtCheckMemory?$CI?$CJ?$AA@ 0043cfc4     LIBCD:dbgheap.obj
 0002:00004fd8       ??_C@_0BK@JDHA@_pFirstBlock?5?$DN?$DN?5pOldBlock?$AA@ 0043cfd8     LIBCD:dbgheap.obj
 0002:00004ff4       ??_C@_0BJ@NMEF@_pLastBlock?5?$DN?$DN?5pOldBlock?$AA@ 0043cff4     LIBCD:dbgheap.obj
 0002:00005010       ??_C@_0DC@BOCN@fRealloc?5?$HM?$HM?5?$CI?$CBfRealloc?5?$CG?$CG?5pNewBl@ 0043d010     LIBCD:dbgheap.obj
 0002:00005044       ??_C@_0DK@DKOM@_BLOCK_TYPE?$CIpOldBlock?9?$DOnBlockUse@ 0043d044     LIBCD:dbgheap.obj
 0002:00005080       ??_C@_0EF@EDKM@pOldBlock?9?$DOnLine?5?$DN?$DN?5IGNORE_LINE?5@ 0043d080     LIBCD:dbgheap.obj
 0002:000050c8       ??_C@_0CC@GPMO@_CrtIsValidHeapPointer?$CIpUserData@ 0043d0c8     LIBCD:dbgheap.obj
 0002:000050ec       ??_C@_0CN@FHGE@Allocation?5too?5large?5or?5negative@ 0043d0ec     LIBCD:dbgheap.obj
 0002:0000511c       ??_C@_0CE@EAMN@Client?5hook?5re?9allocation?5failur@ 0043d11c     LIBCD:dbgheap.obj
 0002:00005140       ??_C@_0DI@KKMM@Client?5hook?5re?9allocation?5failur@ 0043d140     LIBCD:dbgheap.obj
 0002:00005178       ??_C@_0BG@JCEC@_pFirstBlock?5?$DN?$DN?5pHead?$AA@ 0043d178     LIBCD:dbgheap.obj
 0002:00005190       ??_C@_0BF@NLNN@_pLastBlock?5?$DN?$DN?5pHead?$AA@ 0043d190     LIBCD:dbgheap.obj
 0002:000051a8       ??_C@_0BO@PLHH@pHead?9?$DOnBlockUse?5?$DN?$DN?5nBlockUse?$AA@ 0043d1a8     LIBCD:dbgheap.obj
 0002:000051c8       ??_C@_0DN@KKIO@pHead?9?$DOnLine?5?$DN?$DN?5IGNORE_LINE?5?$CG?$CG?5p@ 0043d1c8     LIBCD:dbgheap.obj
 0002:00005208       ??_C@_0CK@OJNB@DAMAGE?3?5after?5?$CFhs?5block?5?$CI?$CD?$CFd?$CJ?5at@ 0043d208     LIBCD:dbgheap.obj
 0002:00005234       ??_C@_0CL@IJIL@DAMAGE?3?5before?5?$CFhs?5block?5?$CI?$CD?$CFd?$CJ?5a@ 0043d234     LIBCD:dbgheap.obj
 0002:00005260       ??_C@_0CH@PHOC@_BLOCK_TYPE_IS_VALID?$CIpHead?9?$DOnBlo@ 0043d260     LIBCD:dbgheap.obj
 0002:00005288       ??_C@_0BL@MBNA@Client?5hook?5free?5failure?4?6?$AA@ 0043d288     LIBCD:dbgheap.obj
 0002:000052a4       ??_C@_0DK@EKKL@memory?5check?5error?5at?50x?$CF08X?5?$DN?50@ 0043d2a4     LIBCD:dbgheap.obj
 0002:000052e0       ??_C@_0CJ@GCII@?$CFhs?5located?5at?50x?$CF08X?5is?5?$CFu?5byte@ 0043d2e0     LIBCD:dbgheap.obj
 0002:0000530c       ??_C@_0CA@EJPI@?$CFhs?5allocated?5at?5file?5?$CFhs?$CI?$CFd?$CJ?4?6?$AA@ 0043d30c     LIBCD:dbgheap.obj
 0002:0000532c       ??_C@_0CJ@LHHG@DAMAGE?3?5on?5top?5of?5Free?5block?5at?5@ 0043d32c     LIBCD:dbgheap.obj
 0002:00005358       ??_C@_07GJHM@DAMAGED?$AA@  0043d358     LIBCD:dbgheap.obj
 0002:00005360       ??_C@_0CL@ODIE@_heapchk?5fails?5with?5unknown?5retu@ 0043d360     LIBCD:dbgheap.obj
 0002:0000538c       ??_C@_0CC@EHNC@_heapchk?5fails?5with?5_HEAPBADPTR?4@ 0043d38c     LIBCD:dbgheap.obj
 0002:000053b0       ??_C@_0CC@JNDP@_heapchk?5fails?5with?5_HEAPBADEND?4@ 0043d3b0     LIBCD:dbgheap.obj
 0002:000053d4       ??_C@_0CD@DNMG@_heapchk?5fails?5with?5_HEAPBADNODE@ 0043d3d4     LIBCD:dbgheap.obj
 0002:000053f8       ??_C@_0CE@JMCB@_heapchk?5fails?5with?5_HEAPBADBEGI@ 0043d3f8     LIBCD:dbgheap.obj
 0002:0000541c       ??_C@_0CD@MEMI@Bad?5memory?5block?5found?5at?50x?$CF08X@ 0043d41c     LIBCD:dbgheap.obj
 0002:00005440       ??_C@_0CI@GMAO@_CrtMemCheckPoint?3?5NULL?5state?5po@ 0043d440     LIBCD:dbgheap.obj
 0002:00005468       ??_C@_0CI@MNAE@_CrtMemDifference?3?5NULL?5state?5po@ 0043d468     LIBCD:dbgheap.obj
 0002:00005490       ??_C@_0BH@PKIJ@Object?5dump?5complete?4?6?$AA@ 0043d490     LIBCD:dbgheap.obj
 0002:000054a8       ??_C@_0DB@DBPF@crt?5block?5at?50x?$CF08X?0?5subtype?5?$CFx?0@ 0043d4a8     LIBCD:dbgheap.obj
 0002:000054dc       ??_C@_0CI@JLM@normal?5block?5at?50x?$CF08X?0?5?$CFu?5bytes@ 0043d4dc     LIBCD:dbgheap.obj
 0002:00005504       ??_C@_0DE@PFEA@client?5block?5at?50x?$CF08X?0?5subtype?5@ 0043d504     LIBCD:dbgheap.obj
 0002:00005538       ??_C@_06MBCE@?$HL?$CFld?$HN?5?$AA@ 0043d538     LIBCD:dbgheap.obj
 0002:00005540       ??_C@_0L@BLDJ@?$CFhs?$CI?$CFd?$CJ?5?3?5?$AA@ 0043d540     LIBCD:dbgheap.obj
 0002:0000554c       ??_C@_0BE@FEMA@?$CDFile?5Error?$CD?$CI?$CFd?$CJ?5?3?5?$AA@ 0043d54c     LIBCD:dbgheap.obj
 0002:00005560       ??_C@_0BE@FPPM@Dumping?5objects?5?9?$DO?6?$AA@ 0043d560     LIBCD:dbgheap.obj
 0002:00005574       ??_C@_0BA@POLM@?5Data?3?5?$DM?$CFs?$DO?5?$CFs?6?$AA@ 0043d574     LIBCD:dbgheap.obj
 0002:00005584       ??_C@_05JLAO@?$CF?42X?5?$AA@ 0043d584     LIBCD:dbgheap.obj
 0002:0000558c       ??_C@_0BI@KONA@Detected?5memory?5leaks?$CB?6?$AA@ 0043d58c     LIBCD:dbgheap.obj
 0002:000055a4       ??_C@_0BP@LCCN@Total?5allocations?3?5?$CFld?5bytes?4?6?$AA@ 0043d5a4     LIBCD:dbgheap.obj
 0002:000055c4       ??_C@_0CB@COID@Largest?5number?5used?3?5?$CFld?5bytes?4?6@ 0043d5c4     LIBCD:dbgheap.obj
 0002:000055e8       ??_C@_0BO@MEJD@?$CFld?5bytes?5in?5?$CFld?5?$CFhs?5Blocks?4?6?$AA@ 0043d5e8     LIBCD:dbgheap.obj
 0002:00005608       ??_C@_0BB@BLL@Assertion?5Failed?$AA@ 0043d608     LIBCD:dbgrpt.obj
 0002:0000561c       ??_C@_05CKBG@Error?$AA@    0043d61c     LIBCD:dbgrpt.obj
 0002:00005624       ??_C@_07JCGI@Warning?$AA@  0043d624     LIBCD:dbgrpt.obj
 0002:0000562c       ??_C@_0M@ODEP@?$CFs?$CI?$CFd?$CJ?5?3?5?$CFs?$AA@ 0043d62c     LIBCD:dbgrpt.obj
 0002:00005638       ??_C@_01FEHD@?$AN?$AA@     0043d638     LIBCD:dbgrpt.obj
 0002:0000563c       ??_C@_0BD@BEAK@Assertion?5failed?3?5?$AA@ 0043d63c     LIBCD:dbgrpt.obj
 0002:00005650       ??_C@_0CL@LCCP@_CrtDbgReport?3?5String?5too?5long?5o@ 0043d650     LIBCD:dbgrpt.obj
 0002:0000567c       ??_C@_0DC@EMDK@Second?5Chance?5Assertion?5Failed?3?5@ 0043d67c     LIBCD:dbgrpt.obj
 0002:000056b0       ??_C@_09NJAK@wsprintfA?$AA@ 0043d6b0     LIBCD:dbgrpt.obj
 0002:000056bc       ??_C@_0L@HKL@user32?4dll?$AA@ 0043d6bc     LIBCD:dbgrpt.obj
 0002:000056c8       ??_C@_0CD@GCMD@Microsoft?5Visual?5C?$CL?$CL?5Debug?5Libra@ 0043d6c8     LIBCD:dbgrpt.obj
 0002:000056ec       ??_C@_0FD@EBDD@Debug?5?$CFs?$CB?6?6Program?3?5?$CFs?$CFs?$CFs?$CFs?$CFs?$CFs@ 0043d6ec     LIBCD:dbgrpt.obj
 0002:00005740       ??_C@_09DCKN@?6Module?3?5?$AA@ 0043d740     LIBCD:dbgrpt.obj
 0002:0000574c       ??_C@_07HJII@?6File?3?5?$AA@ 0043d74c     LIBCD:dbgrpt.obj
 0002:00005754       ??_C@_07LFGN@?6Line?3?5?$AA@ 0043d754     LIBCD:dbgrpt.obj
 0002:0000575c       ??_C@_0HD@BHFH@?6?6For?5information?5on?5how?5your?5pr@ 0043d75c     LIBCD:dbgrpt.obj
 0002:000057d0       ??_C@_08GFHP@dbgrpt?4c?$AA@ 0043d7d0     LIBCD:dbgrpt.obj
 0002:000057dc       ??_C@_0BG@FBEA@szUserMessage?5?$CB?$DN?5NULL?$AA@ 0043d7dc     LIBCD:dbgrpt.obj
 0002:00005870       ??_C@_0DP@IHIN@?$CI?$CCinconsistent?5IOB?5fields?$CC?0?5stre@ 0043d870     LIBCD:_flsbuf.obj
 0002:000058b0       ??_C@_09LGEI@_flsbuf?4c?$AA@ 0043d8b0     LIBCD:_flsbuf.obj
 0002:000058bc       ??_C@_0M@KJPK@str?5?$CB?$DN?5NULL?$AA@ 0043d8bc     LIBCD:_flsbuf.obj
 0002:000058c8       ___lookuptable             0043d8c8     LIBCD:output.obj
 0002:00005924       ??_C@_1O@POHA@?$AA?$CI?$AAn?$AAu?$AAl?$AAl?$AA?$CJ?$AA?$AA@ 0043d924     LIBCD:output.obj
 0002:00005934       ??_C@_06ONKE@?$CInull?$CJ?$AA@ 0043d934     LIBCD:output.obj
 0002:0000593c       ??_C@_08MIHI@output?4c?$AA@ 0043d93c     LIBCD:output.obj
 0002:00005948       ??_C@_0P@PIHB@ch?5?$CB?$DN?5_T?$CI?8?20?8?$CJ?$AA@ 0043d948     LIBCD:output.obj
 0002:00005958       ??_C@_09IGKD@stdenvp?4c?$AA@ 0043d958     LIBCD:stdenvp.obj
 0002:00005964       ??_C@_09MPMN@stdargv?4c?$AA@ 0043d964     LIBCD:stdargv.obj
 0002:00005970       ??_C@_07BNNE@a_env?4c?$AA@ 0043d970     LIBCD:a_env.obj
 0002:00005978       ??_C@_0P@GGKG@runtime?5error?5?$AA@ 0043d978     LIBCD:crt0msg.obj
 0002:00005988       ??_C@_02PIMC@?$AN?6?$AA@   0043d988     LIBCD:crt0msg.obj
 0002:0000598c       ??_C@_0O@DELO@TLOSS?5error?$AN?6?$AA@ 0043d98c     LIBCD:crt0msg.obj
 0002:0000599c       ??_C@_0N@OMLL@SING?5error?$AN?6?$AA@ 0043d99c     LIBCD:crt0msg.obj
 0002:000059ac       ??_C@_0P@OJAK@DOMAIN?5error?$AN?6?$AA@ 0043d9ac     LIBCD:crt0msg.obj
 0002:000059bc       ??_C@_0CF@EANP@R6028?$AN?6?9?5unable?5to?5initialize?5he@ 0043d9bc     LIBCD:crt0msg.obj
 0002:000059e4       ??_C@_0DF@ECGN@R6027?$AN?6?9?5not?5enough?5space?5for?5lo@ 0043d9e4     LIBCD:crt0msg.obj
 0002:00005a1c       ??_C@_0DF@FKAC@R6026?$AN?6?9?5not?5enough?5space?5for?5st@ 0043da1c     LIBCD:crt0msg.obj
 0002:00005a54       ??_C@_0CG@DPMN@R6025?$AN?6?9?5pure?5virtual?5function?5c@ 0043da54     LIBCD:crt0msg.obj
 0002:00005a7c       ??_C@_0DF@CKIP@R6024?$AN?6?9?5not?5enough?5space?5for?5_o@ 0043da7c     LIBCD:crt0msg.obj
 0002:00005ab4       ??_C@_0CJ@GGOE@R6019?$AN?6?9?5unable?5to?5open?5console?5@ 0043dab4     LIBCD:crt0msg.obj
 0002:00005ae0       ??_C@_0CB@LBOB@R6018?$AN?6?9?5unexpected?5heap?5error?$AN?6@ 0043dae0     LIBCD:crt0msg.obj
 0002:00005b04       ??_C@_0CN@FPEG@R6017?$AN?6?9?5unexpected?5multithread?5@ 0043db04     LIBCD:crt0msg.obj
 0002:00005b34       ??_C@_0CM@OBIC@R6016?$AN?6?9?5not?5enough?5space?5for?5th@ 0043db34     LIBCD:crt0msg.obj
 0002:00005b60       ??_C@_0CB@HPAL@?$AN?6abnormal?5program?5termination?$AN?6@ 0043db60     LIBCD:crt0msg.obj
 0002:00005b84       ??_C@_0CM@JOOB@R6009?$AN?6?9?5not?5enough?5space?5for?5en@ 0043db84     LIBCD:crt0msg.obj
 0002:00005bb0       ??_C@_0CK@OIBL@R6008?$AN?6?9?5not?5enough?5space?5for?5ar@ 0043dbb0     LIBCD:crt0msg.obj
 0002:00005bdc       ??_C@_0CF@LKPB@R6002?$AN?6?9?5floating?5point?5not?5load@ 0043dbdc     LIBCD:crt0msg.obj
 0002:00005c04       ??_C@_0BK@DEOK@Runtime?5Error?$CB?6?6Program?3?5?$AA@ 0043dc04     LIBCD:crt0msg.obj
 0002:00005c20       ??_C@_0BD@NJFP@GetLastActivePopup?$AA@ 0043dc20     LIBCD:crtmbox.obj
 0002:00005c34       ??_C@_0BA@GILI@GetActiveWindow?$AA@ 0043dc34     LIBCD:crtmbox.obj
 0002:00005c44       ??_C@_0M@PKCK@MessageBoxA?$AA@ 0043dc44     LIBCD:crtmbox.obj
 0002:00005c50       ??_C@_09DLOM@fprintf?4c?$AA@ 0043dc50     LIBCD:fprintf.obj
 0002:00005c5c       ??_C@_09GCII@setvbuf?4c?$AA@ 0043dc5c     LIBCD:setvbuf.obj
 0002:00005c68       __real@8@3fff8000000000000000 0043dc68     LIBCD:testfdiv.obj
 0002:00005c70       ??_C@_0BK@JEGK@IsProcessorFeaturePresent?$AA@ 0043dc70     LIBCD:testfdiv.obj
 0002:00005c8c       ??_C@_08OBID@KERNEL32?$AA@ 0043dc8c     LIBCD:testfdiv.obj
 0002:00005c98       __real@8@00000000000000000000 0043dc98     LIBCD:cvt.obj
 0002:00005ca0       ??_C@_05OFLO@e?$CL000?$AA@ 0043dca0     LIBCD:cvt.obj
 0002:00005ca8       ??_C@_09LNLM@osfinfo?4c?$AA@ 0043dca8     LIBCD:osfinfo.obj
 0002:00005cb4       ??_C@_08EIOK@chsize?4c?$AA@ 0043dcb4     LIBCD:chsize.obj
 0002:00005cc0       ??_C@_09NPGF@size?5?$DO?$DN?50?$AA@ 0043dcc0     LIBCD:chsize.obj
 0002:00005ccc       ??_C@_0L@HE@vsprintf?4c?$AA@ 0043dccc     LIBCD:vsnprint.obj
 0002:00005cd8       ___dnames                  0043dcd8     LIBCD:timeset.obj
 0002:00005cf0       ___mnames                  0043dcf0     LIBCD:timeset.obj
 0002:00005d18       ??_C@_07DEKI@tzset?4c?$AA@ 0043dd18     LIBCD:tzset.obj
 0002:00005d20       ??_C@_02JHIA@TZ?$AA@       0043dd20     LIBCD:tzset.obj
 0002:00005d24       ??_C@_09EMDO@_getbuf?4c?$AA@ 0043dd24     LIBCD:_getbuf.obj
 0002:00005d30       ??_C@_09JNND@_sftbuf?4c?$AA@ 0043dd30     LIBCD:_sftbuf.obj
 0002:00005d3c       ??_C@_0BH@EOPG@flag?5?$DN?$DN?50?5?$HM?$HM?5flag?5?$DN?$DN?51?$AA@ 0043dd3c     LIBCD:_sftbuf.obj
 0002:00005d54       ??_C@_0L@JIE@_freebuf?4c?$AA@ 0043dd54     LIBCD:_freebuf.obj
 0002:00005d60       ??_C@_0P@FHEA@stream?5?$CB?$DN?5NULL?$AA@ 0043dd60     LIBCD:_freebuf.obj
 0002:00005d70       ??_C@_08PHBD@fclose?4c?$AA@ 0043dd70     LIBCD:fclose.obj
 0002:00005d7c       ??_C@_01A@?$AA?$AA@        0043dd7c     LIBCD:a_str.obj
 0002:00005d80       ??_C@_13A@?$AA?$AA?$AA?$AA@ 0043dd80     LIBCD:a_str.obj
 0002:00005db0       ??_C@_06PAPI@1?$CDQNAN?$AA@ 0043ddb0     LIBCD:x10fout.obj
 0002:00005db8       ??_C@_05BGNL@1?$CDINF?$AA@ 0043ddb8     LIBCD:x10fout.obj
 0002:00005dc0       ??_C@_05EDPF@1?$CDIND?$AA@ 0043ddc0     LIBCD:x10fout.obj
 0002:00005dc8       ??_C@_06LKFM@1?$CDSNAN?$AA@ 0043ddc8     LIBCD:x10fout.obj
 0002:00005dd0       ??_C@_0L@EJNO@wtombenv?4c?$AA@ 0043ddd0     LIBCD:wtombenv.obj
 0002:00005ddc       ??_C@_07FOIK@a_cmp?4c?$AA@ 0043dddc     LIBCD:a_cmp.obj
 0002:00005de4       ??_C@_0DN@PPKB@cchCount1?$DN?$DN0?5?$CG?$CG?5cchCount2?$DN?$DN1?5?$HM?$HM?5@ 0043dde4     LIBCD:a_cmp.obj
 0002:00005e40       ??_C@_08FEIK@setenv?4c?$AA@ 0043de40     LIBCD:setenv.obj
 0002:00005e50       ??_R1M@?0A@A@ostream@@8    0043de50     libcid:fstream.obj
 0002:00005e68       ??_R1A@A@3BA@ios@@8        0043de68     libcid:fstream.obj
 0002:00005e80       ??_R1A@?0A@A@istream@@8    0043de80     libcid:fstream.obj
 0002:00005e98       ??_R1A@?0A@A@iostream@@8   0043de98     libcid:fstream.obj
 0002:00005eb0       ??_R1A@?0A@A@fstream@@8    0043deb0     libcid:fstream.obj
 0002:00005ec8       ??_R2fstream@@8            0043dec8     libcid:fstream.obj
 0002:00005ee8       ??_R3fstream@@8            0043dee8     libcid:fstream.obj
 0002:00005ef8       ??_R4fstream@@6B@          0043def8     libcid:fstream.obj
 0002:00005f10       ??_R1A@?0A@A@streambuf@@8  0043df10     libcid:filebuf.obj
 0002:00005f28       ??_R1A@?0A@A@filebuf@@8    0043df28     libcid:filebuf.obj
 0002:00005f40       ??_R2filebuf@@8            0043df40     libcid:filebuf.obj
 0002:00005f50       ??_R3filebuf@@8            0043df50     libcid:filebuf.obj
 0002:00005f60       ??_R4filebuf@@6B@          0043df60     libcid:filebuf.obj
 0002:00005f78       ??_R1A@?0A@A@ios@@8        0043df78     libcid:_ios.obj
 0002:00005f90       ??_R2ios@@8                0043df90     libcid:_ios.obj
 0002:00005f98       ??_R3ios@@8                0043df98     libcid:_ios.obj
 0002:00005fa8       ??_R4ios@@6B@              0043dfa8     libcid:_ios.obj
 0002:00005fc0       ??_R1A@?0A@A@ostream@@8    0043dfc0     libcid:ostream.obj
 0002:00005fd8       ??_R2ostream@@8            0043dfd8     libcid:ostream.obj
 0002:00005fe8       ??_R3ostream@@8            0043dfe8     libcid:ostream.obj
 0002:00005ff8       ??_R4ostream@@6B@          0043dff8     libcid:ostream.obj
 0002:00006010       ??_R1A@?0A@A@ostream_withassign@@8 0043e010     libcid:ostream.obj
 0002:00006028       ??_R2ostream_withassign@@8 0043e028     libcid:ostream.obj
 0002:00006038       ??_R3ostream_withassign@@8 0043e038     libcid:ostream.obj
 0002:00006048       ??_R4ostream_withassign@@6B@ 0043e048     libcid:ostream.obj
 0002:00006060       ??_R2iostream@@8           0043e060     libcid:_iostrea.obj
 0002:00006078       ??_R3iostream@@8           0043e078     libcid:_iostrea.obj
 0002:00006088       ??_R4iostream@@6B@         0043e088     libcid:_iostrea.obj
 0002:0000609c       ??_R2streambuf@@8          0043e09c     libcid:streamb.obj
 0002:000060a8       ??_R3streambuf@@8          0043e0a8     libcid:streamb.obj
 0002:000060b8       ??_R4streambuf@@6B@        0043e0b8     libcid:streamb.obj
 0002:000060d0       ??_R2istream@@8            0043e0d0     libcid:istream.obj
 0002:000060e0       ??_R3istream@@8            0043e0e0     libcid:istream.obj
 0002:000060f0       ??_R4istream@@6B@          0043e0f0     libcid:istream.obj
 0002:00006108       ??_R1A@?0A@A@istream_withassign@@8 0043e108     libcid:istream.obj
 0002:00006120       ??_R2istream_withassign@@8 0043e120     libcid:istream.obj
 0002:00006130       ??_R3istream_withassign@@8 0043e130     libcid:istream.obj
 0002:00006140       ??_R4istream_withassign@@6B@ 0043e140     libcid:istream.obj
 0002:00006158       ??_R1A@?0A@A@type_info@@8  0043e158     LIBCD:typinfo.obj
 0002:00006170       ??_R2type_info@@8          0043e170     LIBCD:typinfo.obj
 0002:00006178       ??_R3type_info@@8          0043e178     LIBCD:typinfo.obj
 0002:00006188       ??_R4type_info@@6B@        0043e188     LIBCD:typinfo.obj
 0002:00006b40       __CT??_R0PAX@84            0043eb40     DxGuiFramework:DGGraphics.obj
 0002:00006b60       __CT??_R0PAVDGException@@@84 0043eb60     DxGuiFramework:DGGraphics.obj
 0002:00006b80       __CTA2PAVDGException@@     0043eb80     DxGuiFramework:DGGraphics.obj
 0002:00006b90       __TI2PAVDGException@@      0043eb90     DxGuiFramework:DGGraphics.obj
 0003:00000000       ___xc_a                    00440000     LIBCD:crt0init.obj
 0003:00000008       ___xc_z                    00440008     LIBCD:crt0init.obj
 0003:0000000c       ___xi_a                    0044000c     LIBCD:crt0init.obj
 0003:00000020       ___xi_z                    00440020     LIBCD:crt0init.obj
 0003:00000024       ___xp_a                    00440024     LIBCD:crt0init.obj
 0003:0000002c       ___xp_z                    0044002c     LIBCD:crt0init.obj
 0003:00000030       ___xt_a                    00440030     LIBCD:crt0init.obj
 0003:00000038       ___xt_z                    00440038     LIBCD:crt0init.obj
 0003:00000040       ?__LINE__Var@?1??SetSize@DGWindow@@UAIXABVDGPoint@@@Z@4FA 00440040     DxGuiFramework:DGWindow.obj
 0003:00000044       ?__LINE__Var@?1??SetSize@DGWindow@@UAIXHH@Z@4FA 00440044     DxGuiFramework:DGWindow.obj
 0003:00000048       ?__LINE__Var@?1??SetDimensions@DGWindow@@UAIXABVDGArea@@@Z@4FA 00440048     DxGuiFramework:DGWindow.obj
 0003:0000004c       ?__LINE__Var@?1??SetDimensions@DGWindow@@UAIXABVDGPoint@@0@Z@4FA 0044004c     DxGuiFramework:DGWindow.obj
 0003:00000050       ?__LINE__Var@?1??SetDimensions@DGWindow@@UAIXHHHH@Z@4FA 00440050     DxGuiFramework:DGWindow.obj
 0003:00000054       ?__LINE__Var@?1??DrawWindow@DGWindow@@UAIXXZ@4FA 00440054     DxGuiFramework:DGWindow.obj
 0003:00000058       ?__LINE__Var@?1??AddChildWindow@DGWindow@@QAIXPAV2@@Z@4FA 00440058     DxGuiFramework:DGWindow.obj
 0003:0000005c       ?__LINE__Var@?1??SetMainWindow@DGGui@@QAEXPAVDGMainWindow@@@Z@4FA 0044005c     DxGuiFramework:DGGui.obj
 0003:00000060       ?__LINE__Var@?1??PostMessageA@DGGui@@QAEXPAVDGMessage@@@Z@4FA 00440060     DxGuiFramework:DGGui.obj
 0003:00000064       ?__LINE__Var@?1??SendMessageA@DGGui@@QAEXPAVDGMessage@@@Z@4FA 00440064     DxGuiFramework:DGGui.obj
 0003:00000068       ??_R0PAVDGException@@@8    00440068     DxGuiFramework:DxGuiFramework.obj
 0003:00000084       ?__LINE__Var@?1??WinMain@@9@16@4FA 00440084     DxGuiFramework:DxGuiFramework.obj
 0003:00000088       ?__LINE__Var@?1???0DGGraphics@@QAE@XZ@4FA 00440088     DxGuiFramework:DGGraphics.obj
 0003:00000090       ??_R0PAX@8                 00440090     DxGuiFramework:DGGraphics.obj
 0003:000000a0       ?__LINE__Var@?1??SetGraphicsMode@DGGraphics@@QAEXVDGPoint@@III_N@Z@4FA 004400a0     DxGuiFramework:DGGraphics.obj
 0003:000000a4       ?__LINE__Var@?1??LockSurface@DGGraphics@@QAIXXZ@4FA 004400a4     DxGuiFramework:DGGraphics.obj
 0003:000000a8       ?__LINE__Var@?1??UnlockSurface@DGGraphics@@QAIXXZ@4FA 004400a8     DxGuiFramework:DGGraphics.obj
 0003:000000ac       ?__LINE__Var@?1??FlipSurface@DGGraphics@@QAIXXZ@4FA 004400ac     DxGuiFramework:DGGraphics.obj
 0003:000000b0       ?__LINE__Var@?1??SetPixel@DGGraphics@@QAIXHHAAVDGColor@@@Z@4FA 004400b0     DxGuiFramework:DGGraphics.obj
 0003:000000b4       ?__LINE__Var@?1??DrawHorizontalLine@DGGraphics@@QAIXHHHAAVDGColor@@@Z@4FA 004400b4     DxGuiFramework:DGGraphics.obj
 0003:000000b8       ?__LINE__Var@?1??DrawVerticalLine@DGGraphics@@QAIXHHHAAVDGColor@@@Z@4FA 004400b8     DxGuiFramework:DGGraphics.obj
 0003:000000bc       ?__LINE__Var@?1??DrawLine@DGGraphics@@QAIXAAVDGPoint@@0AAVDGColor@@@Z@4FA 004400bc     DxGuiFramework:DGGraphics.obj
 0003:000000c0       ?__LINE__Var@?1??DrawRectangle@DGGraphics@@QAIXAAVDGRectangle@@AAVDGColor@@@Z@4FA 004400c0     DxGuiFramework:DGGraphics.obj
 0003:000000c4       ?__LINE__Var@?1??DrawFilledRectangle@DGGraphics@@QAIXAAVDGRectangle@@AAVDGColor@@@Z@4FA 004400c4     DxGuiFramework:DGGraphics.obj
 0003:000000c8       ?__LINE__Var@?1??FillArea@DGGraphics@@QAIXAAVDGArea@@AAVDGColor@@@Z@4FA 004400c8     DxGuiFramework:DGGraphics.obj
 0003:000000cc       ?__LINE__Var@?1??FillScreen@DGGraphics@@QAIXAAVDGColor@@@Z@4FA 004400cc     DxGuiFramework:DGGraphics.obj
 0003:000000d0       ?__LINE__Var@?1??DrawBitmap@DGGraphics@@QAIXAAVDGPoint@@I@Z@4FA 004400d0     DxGuiFramework:DGGraphics.obj
 0003:000000d4       ?__LINE__Var@?1??DrawScaledBitmap@DGGraphics@@QAIXAAVDGArea@@I@Z@4FA 004400d4     DxGuiFramework:DGGraphics.obj
 0003:000000d8       ?__LINE__Var@?1??DrawTransparentBitmap@DGGraphics@@QAIXAAVDGPoint@@IAAVDGColor@@@Z@4FA 004400d8     DxGuiFramework:DGGraphics.obj
 0003:000000dc       ?__LINE__Var@?1??DrawTransparentScaledBitmap@DGGraphics@@QAIXAAVDGArea@@IAAVDGColor@@@Z@4FA 004400dc     DxGuiFramework:DGGraphics.obj
 0003:000000e0       ?__LINE__Var@?1??DrawTransparentBitmap@DGGraphics@@QAIXAAVDGPoint@@I@Z@4FA 004400e0     DxGuiFramework:DGGraphics.obj
 0003:000000e4       ?__LINE__Var@?1??DrawTransparentScaledBitmap@DGGraphics@@QAIXAAVDGArea@@I@Z@4FA 004400e4     DxGuiFramework:DGGraphics.obj
 0003:000000e8       ?__LINE__Var@?1??SetTextTransparency@DGGraphics@@QAIXH@Z@4FA 004400e8     DxGuiFramework:DGGraphics.obj
 0003:000000ec       ?__LINE__Var@?1??DrawTextA@DGGraphics@@QAIXPADAAVDGRectangle@@I@Z@4FA 004400ec     DxGuiFramework:DGGraphics.obj
 0003:000000f0       ?__LINE__Var@?1??AddClippingArea@DGGraphics@@QAIXAAVDGRectangle@@@Z@4FA 004400f0     DxGuiFramework:DGGraphics.obj
 0003:000000f4       ?__LINE__Var@?1??RestoreAllSurfaces@DGGraphics@@AAIXXZ@4FA 004400f4     DxGuiFramework:DGGraphics.obj
 0003:000000f8       ?__LINE__Var@?1??ClearPrimarySurface@DGGraphics@@AAIXXZ@4FA 004400f8     DxGuiFramework:DGGraphics.obj
 0003:000000fc       ?__LINE__Var@?1???0DGFont@@QAE@XZ@4FA 004400fc     DxGuiFramework:DGFont.obj
 0003:00000100       ?__LINE__Var@?1???0DGFont@@QAE@PBDHH_N11@Z@4FA 00440100     DxGuiFramework:DGFont.obj
 0003:00000104       ?__LINE__Var@?1???4DGFont@@QAEAAV1@AAV1@@Z@4FA 00440104     DxGuiFramework:DGFont.obj
 0003:00000108       ?__LINE__Var@?1??LoadBitmapFile@DGImage@@QAEXPADH@Z@4FA 00440108     DxGuiFramework:DGImage.obj
 0003:0000010c       ?__LINE__Var@?1??SetFont@DGButton@@UAEXVDGFont@@@Z@4FA 0044010c     DxGuiFramework:DGButton.obj
 0003:00000110       ?__LINE__Var@?1??GetFont@DGButton@@QAE?AVDGFont@@XZ@4FA 00440110     DxGuiFramework:DGButton.obj
 0003:00000114       ?__LINE__Var@?1??SetText@DGButton@@UAEXPBD@Z@4FA 00440114     DxGuiFramework:DGButton.obj
 0003:00000118       ?__LINE__Var@?1??GetText@DGButton@@QAEQADXZ@4FA 00440118     DxGuiFramework:DGButton.obj
 0003:0000011c       ?__LINE__Var@?1??SetTextColor@DGButton@@QAEXAAVDGColor@@@Z@4FA 0044011c     DxGuiFramework:DGButton.obj
 0003:00000120       ?__LINE__Var@?1??CreateLookupTables@DGColor@@SAXAAU_DDPIXELFORMAT@@I@Z@4FA@5de11618 00440120     DxGuiFramework:DGColor.obj
 0003:00000124       ?__LINE__Var@?1??Create16BitLookupTable@DGColor@@SAXKPAG@Z@4FA@5de11618 00440124     DxGuiFramework:DGColor.obj
 0003:00000128       ?__LINE__Var@?1??Create24Or32BitLookupTable@DGColor@@SAXKPAI@Z@4FA@5de11618 00440128     DxGuiFramework:DGColor.obj
 0003:0000012c       ?__LINE__Var@?1??SetTransparentColor@DGBitmap@@QAIXAAVDGColor@@@Z@4FA 0044012c     DxGuiFramework:DGBitmap.obj
 0003:00000130       ?__LINE__Var@?1??LoadBitmapA@DGBitmap@@QAIXPAD@Z@4FA 00440130     DxGuiFramework:DGBitmap.obj
 0003:00000134       ?__LINE__Var@?1??LoadBitmapA@DGBitmap@@QAIXPADAAVDGArea@@@Z@4FA 00440134     DxGuiFramework:DGBitmap.obj
 0003:00000138       ?__LINE__Var@?1??RestoreBitmap@DGBitmap@@QAIXXZ@4FA 00440138     DxGuiFramework:DGBitmap.obj
 0003:0000013c       ?__LINE__Var@?1??LoadBitmapFromFile@DGBitmap@@AAEXAAVDGArea@@PAD@Z@4FA 0044013c     DxGuiFramework:DGBitmap.obj
 0003:00000140       ?__LINE__Var@?1??FindBitmapSize@DGBitmap@@AAE?AVDGPoint@@PAD@Z@4FA 00440140     DxGuiFramework:DGBitmap.obj
 0003:00000148       ??_R0?AVostream@@@8        00440148     libcid:fstream.obj
 0003:00000160       ??_R0?AVios@@@8            00440160     libcid:fstream.obj
 0003:00000178       ??_R0?AVistream@@@8        00440178     libcid:fstream.obj
 0003:00000190       ??_R0?AViostream@@@8       00440190     libcid:fstream.obj
 0003:000001a8       ??_R0?AVfstream@@@8        004401a8     libcid:fstream.obj
 0003:000001c0       ??_R0?AVstreambuf@@@8      004401c0     libcid:filebuf.obj
 0003:000001d8       ??_R0?AVfilebuf@@@8        004401d8     libcid:filebuf.obj
 0003:000001f0       ?x_maxbit@ios@@0JA         004401f0     libcid:_ios.obj
 0003:000001f4       ?x_curindex@ios@@0HA       004401f4     libcid:_ios.obj
 0003:000001f8       ??_R0?AVostream_withassign@@@8 004401f8     libcid:ostream.obj
 0003:00000220       ??_R0?AVistream_withassign@@@8 00440220     libcid:istream.obj
 0003:00000244       __NLG_Destination          00440244     LIBCD:exsup.obj
 0003:00000258       __aexit_rtn                00440258     LIBCD:wincrt0.obj
 0003:0000025c       ___app_type                0044025c     LIBCD:wincrt0.obj
 0003:00000294       __fltused                  00440294     LIBCD:fpinit.obj
 0003:00000298       __ldused                   00440298     LIBCD:fpinit.obj
 0003:0000029c       __FPinit                   0044029c     LIBCD:fpinit.obj
 0003:000002a0       __FPmtinit                 004402a0     LIBCD:fpinit.obj
 0003:000002a4       __FPmtterm                 004402a4     LIBCD:fpinit.obj
 0003:000002b0       ??_R0?AVtype_info@@@8      004402b0     LIBCD:typinfo.obj
 0003:000002d0       ?__pMyUnhandledExceptionFilter@@3PAXA 004402d0     LIBCD:throw.obj
 0003:000002e0       ___badioinfo               004402e0     LIBCD:ioinit.obj
 0003:000002f0       __iob                      004402f0     LIBCD:_file.obj
 0003:00000570       __crtDbgFlag               00440570     LIBCD:dbgheap.obj
 0003:00000578       __crtBreakAlloc            00440578     LIBCD:dbgheap.obj
 0003:00000594       __crtAssertBusy            00440594     LIBCD:dbgrpt.obj
 0003:00000598       __CrtDbgMode               00440598     LIBCD:dbgrpt.obj
 0003:000005a4       __CrtDbgFile               004405a4     LIBCD:dbgrpt.obj
 0003:000005c0       ?__pUnexpected@@3P6AXXZA   004405c0     LIBCD:hooks.obj
 0003:000005c4       ?__pInconsistency@@3P6AXXZA 004405c4     LIBCD:hooks.obj
 0003:000005c8       ___nullstring              004405c8     LIBCD:output.obj
 0003:000005cc       ___wnullstring             004405cc     LIBCD:output.obj
 0003:000005d0       __XcptActTab               004405d0     LIBCD:winxfltr.obj
 0003:00000648       __First_FPE_Indx           00440648     LIBCD:winxfltr.obj
 0003:0000064c       __Num_FPE                  0044064c     LIBCD:winxfltr.obj
 0003:00000650       __XcptActTabCount          00440650     LIBCD:winxfltr.obj
 0003:00000654       __fpecode                  00440654     LIBCD:winxfltr.obj
 0003:00000658       __amblksiz                 00440658     LIBCD:heapinit.obj
 0003:000006f0       __cfltcvt_tab              004406f0     LIBCD:cmiscdat.obj
 0003:00000878       __pctype                   00440878     LIBCD:ctype.obj
 0003:0000087c       __pwctype                  0044087c     LIBCD:ctype.obj
 0003:00000880       __ctype                    00440880     LIBCD:ctype.obj
 0003:00000a84       ___mb_cur_max              00440a84     LIBCD:nlsdata1.obj
 0003:00000a88       ___decimal_point           00440a88     LIBCD:nlsdata1.obj
 0003:00000a8c       ___decimal_point_length    00440a8c     LIBCD:nlsdata1.obj
 0003:00000a90       __pfnAllocHook             00440a90     LIBCD:dbghook.obj
 0003:00000a94       ___sbh_threshold           00440a94     LIBCD:sbheap.obj
 0003:00000aa0       __timezone                 00440aa0     LIBCD:timeset.obj
 0003:00000aa4       __daylight                 00440aa4     LIBCD:timeset.obj
 0003:00000aa8       __dstbias                  00440aa8     LIBCD:timeset.obj
 0003:00000b2c       __tzname                   00440b2c     LIBCD:timeset.obj
 0003:00000b54       __lpdays                   00440b54     LIBCD:days.obj
 0003:00000b88       __days                     00440b88     LIBCD:days.obj
 0003:00000ce8       __pow10pos                 00440ce8     LIBCD:constpow.obj
 0003:00000e48       __pow10neg                 00440e48     LIBCD:constpow.obj
 0003:00000fb0       ?app@@3VDxGuiTestApp@@A    00440fb0     DxGuiTestApp.obj
 0003:000010bc       ?_Nil@?$_Tree@IU?$pair@$$CBIPAVMsgHandlerInterface@@@std@@U_Kfn@?$map@IPAVMsgHandlerInterface@@U?$less@I@std@@V?$allocator@PAVMsgHandlerInterface@@@3@@2@U?$less@I@2@V?$allocator@PAVMsgHandlerInterface@@@2@@std@@1PAU_Node@12@A 004410bc     DxGuiFramework:DGWindow.obj
 0003:000010c0       ?_Nilrefs@?$_Tree@IU?$pair@$$CBIPAVMsgHandlerInterface@@@std@@U_Kfn@?$map@IPAVMsgHandlerInterface@@U?$less@I@std@@V?$allocator@PAVMsgHandlerInterface@@@3@@2@U?$less@I@2@V?$allocator@PAVMsgHandlerInterface@@@2@@std@@1IA 004410c0     DxGuiFramework:DGWindow.obj
 0003:000010c4       ?dgGraphics@@3PAVDGGraphics@@A 004410c4     DxGuiFramework:DxGuiFramework.obj
 0003:000010c8       ?dgInput@@3PAVDGInput@@A   004410c8     DxGuiFramework:DxGuiFramework.obj
 0003:000010cc       ?instance@DGApplication@@2PAV1@A 004410cc     DxGuiFramework:DxGuiFramework.obj
 0003:000010d0       ?instance@DGGraphics@@2PAV1@A 004410d0     DxGuiFramework:DxGuiFramework.obj
 0003:000010d4       ?red16BitTable@DGColor@@0PAGA 004410d4     DxGuiFramework:DGColor.obj
 0003:000010d8       ?green16BitTable@DGColor@@0PAGA 004410d8     DxGuiFramework:DGColor.obj
 0003:000010dc       ?blue16BitTable@DGColor@@0PAGA 004410dc     DxGuiFramework:DGColor.obj
 0003:000010e0       ?red24BitTable@DGColor@@0PAIA 004410e0     DxGuiFramework:DGColor.obj
 0003:000010e4       ?green24BitTable@DGColor@@0PAIA 004410e4     DxGuiFramework:DGColor.obj
 0003:000010e8       ?blue24BitTable@DGColor@@0PAIA 004410e8     DxGuiFramework:DGColor.obj
 0003:000010ec       ?red32BitTable@DGColor@@0PAIA 004410ec     DxGuiFramework:DGColor.obj
 0003:000010f0       ?green32BitTable@DGColor@@0PAIA 004410f0     DxGuiFramework:DGColor.obj
 0003:000010f4       ?blue32BitTable@DGColor@@0PAIA 004410f4     DxGuiFramework:DGColor.obj
 0003:000010f8       ?x_statebuf@ios@@0PAJA     004410f8     libcid:_ios.obj
 0003:00001118       __aenvptr                  00441118     LIBCD:wincrt0.obj
 0003:0000111c       __wenvptr                  0044111c     LIBCD:wincrt0.obj
 0003:00001120       ___error_mode              00441120     LIBCD:wincrt0.obj
 0003:00001124       ___fastflag                00441124     LIBCD:fpinit.obj
 0003:00001128       __adjust_fdiv              00441128     LIBCD:fpinit.obj
 0003:0000112c       __cflush                   0044112c     LIBCD:_file.obj
 0003:00001148       ?_pCurrentException@@3PAUEHExceptionRecord@@A 00441148     LIBCD:frame.obj
 0003:0000114c       ?_pCurrentExContext@@3PAU_CONTEXT@@A 0044114c     LIBCD:frame.obj
 0003:00001150       ?__pSETranslator@@3P6AXIPAU_EXCEPTION_POINTERS@@@ZA 00441150     LIBCD:hooks.obj
 0003:00001154       ?__pTerminate@@3P6AXXZA    00441154     LIBCD:hooks.obj
 0003:00001158       _errno                     00441158     LIBCD:crt0dat.obj
 0003:0000115c       __doserrno                 0044115c     LIBCD:crt0dat.obj
 0003:00001160       __umaskval                 00441160     LIBCD:crt0dat.obj
 0003:00001164       __osver                    00441164     LIBCD:crt0dat.obj
 0003:00001168       __winver                   00441168     LIBCD:crt0dat.obj
 0003:0000116c       __winmajor                 0044116c     LIBCD:crt0dat.obj
 0003:00001170       __winminor                 00441170     LIBCD:crt0dat.obj
 0003:00001174       ___argc                    00441174     LIBCD:crt0dat.obj
 0003:00001178       ___argv                    00441178     LIBCD:crt0dat.obj
 0003:0000117c       ___wargv                   0044117c     LIBCD:crt0dat.obj
 0003:00001180       __environ                  00441180     LIBCD:crt0dat.obj
 0003:00001184       ___initenv                 00441184     LIBCD:crt0dat.obj
 0003:00001188       __wenviron                 00441188     LIBCD:crt0dat.obj
 0003:0000118c       ___winitenv                0044118c     LIBCD:crt0dat.obj
 0003:00001190       __pgmptr                   00441190     LIBCD:crt0dat.obj
 0003:00001194       __wpgmptr                  00441194     LIBCD:crt0dat.obj
 0003:00001198       __exitflag                 00441198     LIBCD:crt0dat.obj
 0003:0000119c       __C_Termination_Done       0044119c     LIBCD:crt0dat.obj
 0003:000011a0       __C_Exit_Done              004411a0     LIBCD:crt0dat.obj
 0003:000011a8       __pxcptinfoptrs            004411a8     LIBCD:winxfltr.obj
 0003:000012b4       __adbgmsg                  004412b4     LIBCD:crt0msg.obj
 0003:000012ec       __fmode                    004412ec     LIBCD:txtmode.obj
 0003:000012f0       __newmode                  004412f0     LIBCD:_newmode.obj
 0003:000012f4       ?_pnhHeap@@3P6AHI@ZA       004412f4     LIBCD:handler.obj
 0003:000013b8       __stdbuf                   004413b8     LIBCD:_sftbuf.obj
 0003:000013f4       ___lc_handle               004413f4     LIBCD:nlsdata2.obj
 0003:0000140c       ___lc_codepage             0044140c     LIBCD:nlsdata2.obj
 0003:00001410       ___lc_collate_cp           00441410     LIBCD:nlsdata2.obj
 0003:0000141c       ___mbcodepage              0044141c     <common>
 0003:00001420       ___mbulinfo                00441420     <common>
 0003:0000142c       ___ismbcodepage            0044142c     <common>
 0003:00001440       __mbcasemap                00441440     <common>
 0003:00001540       __mbctype                  00441540     <common>
 0003:00001644       ___mblcid                  00441644     <common>
 0003:00001648       ___sbh_sizeHeaderList      00441648     <common>
 0003:0000164c       ___sbh_indGroupDefer       0044164c     <common>
 0003:00001650       ___sbh_pHeaderScan         00441650     <common>
 0003:00001654       ___sbh_pHeaderDefer        00441654     <common>
 0003:00001658       ___sbh_cntHeaderList       00441658     <common>
 0003:0000165c       ___sbh_pHeaderList         0044165c     <common>
 0003:00001660       __crtheap                  00441660     <common>
 0003:00001664       ___env_initialized         00441664     <common>
 0003:00001668       ___mbctype_initialized     00441668     <common>
 0003:0000166c       ___onexitend               0044166c     <common>
 0003:00001670       ___onexitbegin             00441670     <common>
 0003:00001674       __pfnReportHook            00441674     <common>
 0003:00001678       __pfnDumpClient            00441678     <common>
 0003:0000167c       ___piob                    0044167c     <common>
 0003:00001680       __bufin                    00441680     <common>
 0003:00002680       __nstream                  00442680     <common>
 0003:000026a0       ___pioinfo                 004426a0     <common>
 0003:000027a0       __nhandle                  004427a0     <common>
 0003:000027a4       __acmdln                   004427a4     <common>
 0004:00000000       __IMPORT_DESCRIPTOR_DDRAW  00443000     ddraw:DDRAW.dll
 0004:00000014       __IMPORT_DESCRIPTOR_KERNEL32 00443014     kernel32:KERNEL32.dll
 0004:00000028       __IMPORT_DESCRIPTOR_USER32 00443028     user32:USER32.dll
 0004:0000003c       __IMPORT_DESCRIPTOR_GDI32  0044303c     gdi32:GDI32.dll
 0004:00000050       __NULL_IMPORT_DESCRIPTOR   00443050     ddraw:DDRAW.dll
 0004:000001f0       __imp__DirectDrawCreateEx@16 004431f0     ddraw:DDRAW.dll
 0004:000001f4       \177DDRAW_NULL_THUNK_DATA  004431f4     ddraw:DDRAW.dll
 0004:000001f8       __imp__CreateFontA@56      004431f8     gdi32:GDI32.dll
 0004:000001fc       __imp__CreateRectRgnIndirect@4 004431fc     gdi32:GDI32.dll
 0004:00000200       __imp__GetStockObject@4    00443200     gdi32:GDI32.dll
 0004:00000204       __imp__DeleteObject@4      00443204     gdi32:GDI32.dll
 0004:00000208       __imp__GetDeviceCaps@8     00443208     gdi32:GDI32.dll
 0004:0000020c       __imp__SelectObject@8      0044320c     gdi32:GDI32.dll
 0004:00000210       __imp__SetBkColor@8        00443210     gdi32:GDI32.dll
 0004:00000214       __imp__SelectClipRgn@8     00443214     gdi32:GDI32.dll
 0004:00000218       __imp__SetTextColor@8      00443218     gdi32:GDI32.dll
 0004:0000021c       __imp__SetBkMode@8         0044321c     gdi32:GDI32.dll
 0004:00000220       \177GDI32_NULL_THUNK_DATA  00443220     gdi32:GDI32.dll
 0004:00000224       __imp__OutputDebugStringA@4 00443224     kernel32:KERNEL32.dll
 0004:00000228       __imp__GetTickCount@0      00443228     kernel32:KERNEL32.dll
 0004:0000022c       __imp__Sleep@4             0044322c     kernel32:KERNEL32.dll
 0004:00000230       __imp__RaiseException@16   00443230     kernel32:KERNEL32.dll
 0004:00000234       __imp__CreateFileA@28      00443234     kernel32:KERNEL32.dll
 0004:00000238       __imp__IsBadWritePtr@8     00443238     kernel32:KERNEL32.dll
 0004:0000023c       __imp__CompareStringW@24   0044323c     kernel32:KERNEL32.dll
 0004:00000240       __imp__CompareStringA@24   00443240     kernel32:KERNEL32.dll
 0004:00000244       __imp__SetEnvironmentVariableA@8 00443244     kernel32:KERNEL32.dll
 0004:00000248       __imp__LCMapStringA@24     00443248     kernel32:KERNEL32.dll
 0004:0000024c       __imp__GetStringTypeW@16   0044324c     kernel32:KERNEL32.dll
 0004:00000250       __imp__LCMapStringW@24     00443250     kernel32:KERNEL32.dll
 0004:00000254       __imp__MultiByteToWideChar@24 00443254     kernel32:KERNEL32.dll
 0004:00000258       __imp__GetOEMCP@0          00443258     kernel32:KERNEL32.dll
 0004:0000025c       __imp__GetStringTypeA@20   0044325c     kernel32:KERNEL32.dll
 0004:00000260       __imp__GetCPInfo@8         00443260     kernel32:KERNEL32.dll
 0004:00000264       __imp__IsBadCodePtr@4      00443264     kernel32:KERNEL32.dll
 0004:00000268       __imp__GetACP@0            00443268     kernel32:KERNEL32.dll
 0004:0000026c       __imp__HeapReAlloc@16      0044326c     kernel32:KERNEL32.dll
 0004:00000270       __imp__HeapAlloc@12        00443270     kernel32:KERNEL32.dll
 0004:00000274       __imp__VirtualAlloc@16     00443274     kernel32:KERNEL32.dll
 0004:00000278       __imp__FlushFileBuffers@4  00443278     kernel32:KERNEL32.dll
 0004:0000027c       __imp__SetStdHandle@8      0044327c     kernel32:KERNEL32.dll
 0004:00000280       __imp__SetEndOfFile@4      00443280     kernel32:KERNEL32.dll
 0004:00000284       __imp__SetConsoleCtrlHandler@8 00443284     kernel32:KERNEL32.dll
 0004:00000288       __imp__RtlUnwind@16        00443288     kernel32:KERNEL32.dll
 0004:0000028c       __imp__GetTimeZoneInformation@4 0044328c     kernel32:KERNEL32.dll
 0004:00000290       __imp__GetSystemTime@4     00443290     kernel32:KERNEL32.dll
 0004:00000294       __imp__GetLocalTime@4      00443294     kernel32:KERNEL32.dll
 0004:00000298       __imp__GetModuleHandleA@4  00443298     kernel32:KERNEL32.dll
 0004:0000029c       __imp__GetStartupInfoA@4   0044329c     kernel32:KERNEL32.dll
 0004:000002a0       __imp__GetCommandLineA@0   004432a0     kernel32:KERNEL32.dll
 0004:000002a4       __imp__GetVersion@0        004432a4     kernel32:KERNEL32.dll
 0004:000002a8       __imp__ExitProcess@4       004432a8     kernel32:KERNEL32.dll
 0004:000002ac       __imp__GetModuleFileNameA@12 004432ac     kernel32:KERNEL32.dll
 0004:000002b0       __imp__InterlockedDecrement@4 004432b0     kernel32:KERNEL32.dll
 0004:000002b4       __imp__GetLastError@0      004432b4     kernel32:KERNEL32.dll
 0004:000002b8       __imp__CloseHandle@4       004432b8     kernel32:KERNEL32.dll
 0004:000002bc       __imp__WriteFile@20        004432bc     kernel32:KERNEL32.dll
 0004:000002c0       __imp__ReadFile@20         004432c0     kernel32:KERNEL32.dll
 0004:000002c4       __imp__SetFilePointer@16   004432c4     kernel32:KERNEL32.dll
 0004:000002c8       __imp__SetHandleCount@4    004432c8     kernel32:KERNEL32.dll
 0004:000002cc       __imp__GetStdHandle@4      004432cc     kernel32:KERNEL32.dll
 0004:000002d0       __imp__GetFileType@4       004432d0     kernel32:KERNEL32.dll
 0004:000002d4       __imp__VirtualFree@12      004432d4     kernel32:KERNEL32.dll
 0004:000002d8       __imp__SetUnhandledExceptionFilter@4 004432d8     kernel32:KERNEL32.dll
 0004:000002dc       __imp__IsBadReadPtr@8      004432dc     kernel32:KERNEL32.dll
 0004:000002e0       __imp__HeapValidate@12     004432e0     kernel32:KERNEL32.dll
 0004:000002e4       __imp__DebugBreak@0        004432e4     kernel32:KERNEL32.dll
 0004:000002e8       __imp__FreeEnvironmentStringsA@4 004432e8     kernel32:KERNEL32.dll
 0004:000002ec       __imp__GetProcAddress@8    004432ec     kernel32:KERNEL32.dll
 0004:000002f0       __imp__LoadLibraryA@4      004432f0     kernel32:KERNEL32.dll
 0004:000002f4       __imp__InterlockedIncrement@4 004432f4     kernel32:KERNEL32.dll
 0004:000002f8       __imp__TerminateProcess@8  004432f8     kernel32:KERNEL32.dll
 0004:000002fc       __imp__GetCurrentProcess@0 004432fc     kernel32:KERNEL32.dll
 0004:00000300       __imp__UnhandledExceptionFilter@4 00443300     kernel32:KERNEL32.dll
 0004:00000304       __imp__FreeEnvironmentStringsW@4 00443304     kernel32:KERNEL32.dll
 0004:00000308       __imp__WideCharToMultiByte@32 00443308     kernel32:KERNEL32.dll
 0004:0000030c       __imp__GetEnvironmentStrings@0 0044330c     kernel32:KERNEL32.dll
 0004:00000310       __imp__GetEnvironmentStringsW@0 00443310     kernel32:KERNEL32.dll
 0004:00000314       __imp__HeapDestroy@4       00443314     kernel32:KERNEL32.dll
 0004:00000318       __imp__HeapCreate@12       00443318     kernel32:KERNEL32.dll
 0004:0000031c       __imp__HeapFree@12         0044331c     kernel32:KERNEL32.dll
 0004:00000320       \177KERNEL32_NULL_THUNK_DATA 00443320     kernel32:KERNEL32.dll
 0004:00000324       __imp__CreateWindowExA@48  00443324     user32:USER32.dll
 0004:00000328       __imp__SetWindowPos@28     00443328     user32:USER32.dll
 0004:0000032c       __imp__RegisterClassExA@4  0044332c     user32:USER32.dll
 0004:00000330       __imp__MessageBoxA@16      00443330     user32:USER32.dll
 0004:00000334       __imp__ReleaseDC@8         00443334     user32:USER32.dll
 0004:00000338       __imp__GetSystemMetrics@4  00443338     user32:USER32.dll
 0004:0000033c       __imp__SetWindowLongA@12   0044333c     user32:USER32.dll
 0004:00000340       __imp__IsIconic@4          00443340     user32:USER32.dll
 0004:00000344       __imp__GetDC@4             00443344     user32:USER32.dll
 0004:00000348       __imp__GetDesktopWindow@0  00443348     user32:USER32.dll
 0004:0000034c       __imp__DrawTextA@20        0044334c     user32:USER32.dll
 0004:00000350       __imp__LoadCursorA@8       00443350     user32:USER32.dll
 0004:00000354       __imp__ClientToScreen@8    00443354     user32:USER32.dll
 0004:00000358       __imp__DefWindowProcA@16   00443358     user32:USER32.dll
 0004:0000035c       __imp__GetClientRect@8     0044335c     user32:USER32.dll
 0004:00000360       __imp__PeekMessageA@20     00443360     user32:USER32.dll
 0004:00000364       __imp__GetKeyboardState@4  00443364     user32:USER32.dll
 0004:00000368       __imp__PostMessageA@16     00443368     user32:USER32.dll
 0004:0000036c       __imp__LoadIconA@8         0044336c     user32:USER32.dll
 0004:00000370       __imp__TranslateMessage@4  00443370     user32:USER32.dll
 0004:00000374       __imp__DispatchMessageA@4  00443374     user32:USER32.dll
 0004:00000378       \177USER32_NULL_THUNK_DATA 00443378     user32:USER32.dll

 entry point at        0001:000236c0

 Static symbols

 0001:000007a0       _$E31                      004017a0 f   DxGuiTestApp.obj
 0001:000007e0       _$E28                      004017e0 f   DxGuiTestApp.obj
 0001:00000820       _$E30                      00401820 f   DxGuiTestApp.obj
 0001:00000860       _$E29                      00401860 f   DxGuiTestApp.obj
 0001:00035090       _$$$00001                  00436090 f   LIBCD:strchr.obj
 0001:000350b8       str_misaligned             004360b8 f   LIBCD:strchr.obj
 0001:000350cb       main_loop_start            004360cb f   LIBCD:strchr.obj
 0001:000350d6       main_loop                  004360d6 f   LIBCD:strchr.obj
 0001:00035112       retnull                    00436112 f   LIBCD:strchr.obj
 0001:00035114       retnull_bx                 00436114 f   LIBCD:strchr.obj
 0001:00035118       chr_is_found               00436118 f   LIBCD:strchr.obj
 0001:00035140       byte_3                     00436140 f   LIBCD:strchr.obj
 0001:00035147       byte_2                     00436147 f   LIBCD:strchr.obj
 0001:0003514e       byte_1                     0043614e f   LIBCD:strchr.obj
 0001:00035155       byte_0                     00436155 f   LIBCD:strchr.obj
 0001:00035090       found_bx                   00436090 f   LIBCD:strchr.obj
 0001:00034e50       _findenv                   00435e50 f   LIBCD:setenv.obj
 0001:00034ed0       _copy_environ              00435ed0 f   LIBCD:setenv.obj
 0001:00034b20       _strncnt                   00435b20 f   LIBCD:a_cmp.obj
 0001:00032d20       _strncnt                   00433d20 f   LIBCD:a_map.obj
 0001:000314a0       __abstract_cw              004324a0 f   LIBCD:ieee87.obj
 0001:00031620       __hw_cw                    00432620 f   LIBCD:ieee87.obj
 0001:00031780       __abstract_sw              00432780 f   LIBCD:ieee87.obj
 0001:00030c10       _getSystemCP               00431c10 f   LIBCD:mbctype.obj
 0001:00030c70       _CPtoLCID                  00431c70 f   LIBCD:mbctype.obj
 0001:00030cf0       _setSBCS                   00431cf0 f   LIBCD:mbctype.obj
 0001:00030d70       _setSBUpLow                00431d70 f   LIBCD:mbctype.obj
 0001:000308a0       _x_ismbbtype               004318a0 f   LIBCD:ismbbyte.obj
 0001:000306c1       L1                         004316c1 f   LIBCD:ullrem.obj
 0001:000306cf       L3                         004316cf f   LIBCD:ullrem.obj
 0001:000306fa       L4                         004316fa f   LIBCD:ullrem.obj
 0001:00030702       L5                         00431702 f   LIBCD:ullrem.obj
 0001:00030711       L2                         00431711 f   LIBCD:ullrem.obj
 0001:00030652       L1                         00431652 f   LIBCD:ulldiv.obj
 0001:00030660       L3                         00431660 f   LIBCD:ulldiv.obj
 0001:0003068e       L4                         0043168e f   LIBCD:ulldiv.obj
 0001:0003068f       L5                         0043168f f   LIBCD:ulldiv.obj
 0001:00030693       L2                         00431693 f   LIBCD:ulldiv.obj
 0001:00030290       _cvtdate                   00431290 f   LIBCD:tzset.obj
 0001:0002fb20       _$$$00001                  00430b20 f   LIBCD:chkstk.obj
 0001:0002fb2c       probepages                 00430b2c f   LIBCD:chkstk.obj
 0001:0002fb40       lastpage                   00430b40 f   LIBCD:chkstk.obj
 0001:0002ce20       dodwords                   0042de20 f   LIBCD:strcmp.obj
 0001:0002ce50       doneeq                     0042de50 f   LIBCD:strcmp.obj
 0001:0002ce54       donene                     0042de54 f   LIBCD:strcmp.obj
 0001:0002ce5c       dopartial                  0042de5c f   LIBCD:strcmp.obj
 0001:0002ce78       doword                     0042de78 f   LIBCD:strcmp.obj
 0001:0002ccc0       __cftoe_g                  0042dcc0 f   LIBCD:cvt.obj
 0001:0002cd00       __cftof_g                  0042dd00 f   LIBCD:cvt.obj
 0001:0002cd90       __shift                    0042dd90 f   LIBCD:cvt.obj
 0001:0002c2a4       src_misaligned             0042d2a4 f   LIBCD:strncpy.obj
 0001:0002c2c0       tail_loop_start            0042d2c0 f   LIBCD:strncpy.obj
 0001:0002c2c5       copy_tail_loop             0042d2c5 f   LIBCD:strncpy.obj
 0001:0002c2d2       fill_tail_end1             0042d2d2 f   LIBCD:strncpy.obj
 0001:0002c2da       align_dest                 0042d2da f   LIBCD:strncpy.obj
 0001:0002c2e2       dest_align_loop            0042d2e2 f   LIBCD:strncpy.obj
 0001:0002c2f4       dest_align_loop_end        0042d2f4 f   LIBCD:strncpy.obj
 0001:0002c2fb       finish_loop                0042d2fb f   LIBCD:strncpy.obj
 0001:0002c2fe       fill_tail_zero_bytes       0042d2fe f   LIBCD:strncpy.obj
 0001:0002c303       finish                     0042d303 f   LIBCD:strncpy.obj
 0001:0002c309       main_loop                  0042d309 f   LIBCD:strncpy.obj
 0001:0002c311       main_loop_entrance         0042d311 f   LIBCD:strncpy.obj
 0001:0002c347       byte_2                     0042d347 f   LIBCD:strncpy.obj
 0001:0002c351       byte_1                     0042d351 f   LIBCD:strncpy.obj
 0001:0002c35b       byte_0                     0042d35b f   LIBCD:strncpy.obj
 0001:0002c35f       fill_with_EOS_dwords       0042d35f f   LIBCD:strncpy.obj
 0001:0002c367       fill_dwords_with_EOS       0042d367 f   LIBCD:strncpy.obj
 0001:0002c369       fill_with_EOS_loop         0042d369 f   LIBCD:strncpy.obj
 0001:0002c371       fill_tail                  0042d371 f   LIBCD:strncpy.obj
 0001:0002c376       fill_tail_end              0042d376 f   LIBCD:strncpy.obj
 0001:0002c16b       front_misaligned           0042d16b f   LIBCD:strncat.obj
 0001:0002c17a       find_end_of_front_string_loop 0042d17a f   LIBCD:strncat.obj
 0001:0002c1ab       start_byte_3               0042d1ab f   LIBCD:strncat.obj
 0001:0002c1ae       start_byte_2               0042d1ae f   LIBCD:strncat.obj
 0001:0002c1b3       start_byte_1               0042d1b3 f   LIBCD:strncat.obj
 0001:0002c1b8       start_byte_0               0042d1b8 f   LIBCD:strncat.obj
 0001:0002c1bb       copy_start                 0042d1bb f   LIBCD:strncat.obj
 0001:0002c1d0       back_misaligned            0042d1d0 f   LIBCD:strncat.obj
 0001:0002c1ec       tail_loop_start            0042d1ec f   LIBCD:strncat.obj
 0001:0002c1f3       tail_loop                  0042d1f3 f   LIBCD:strncat.obj
 0001:0002c200       empty_counter              0042d200 f   LIBCD:strncat.obj
 0001:0002c202       finish1                    0042d202 f   LIBCD:strncat.obj
 0001:0002c204       finish                     0042d204 f   LIBCD:strncat.obj
 0001:0002c20a       byte_0                     0042d20a f   LIBCD:strncat.obj
 0001:0002c214       main_loop                  0042d214 f   LIBCD:strncat.obj
 0001:0002c21c       main_loop_entrance         0042d21c f   LIBCD:strncat.obj
 0001:0002c24e       byte_3                     0042d24e f   LIBCD:strncat.obj
 0001:0002c258       byte_2                     0042d258 f   LIBCD:strncat.obj
 0001:0002c268       byte_1                     0042d268 f   LIBCD:strncat.obj
 0001:0002beb0       _xtoa                      0042ceb0 f   LIBCD:xtoa.obj
 0001:0002c030       _x64toa@20                 0042d030 f   LIBCD:xtoa.obj
 0001:0002bb10       _ctrlevent_capture@4       0042cb10 f   LIBCD:winsig.obj
 0001:0002bd40       _siglookup                 0042cd40 f   LIBCD:winsig.obj
 0001:0002aed0       _parse_cmdline             0042bed0 f   LIBCD:stdargv.obj
 0001:0002ab80       _xcptlookup                0042bb80 f   LIBCD:winxfltr.obj
 0001:0002a860       _write_char                0042b860 f   LIBCD:output.obj
 0001:0002a8e0       _write_multi_char          0042b8e0 f   LIBCD:output.obj
 0001:0002a920       _write_string              0042b920 f   LIBCD:output.obj
 0001:0002a970       _get_int_arg               0042b970 f   LIBCD:output.obj
 0001:0002a990       _get_int64_arg             0042b990 f   LIBCD:output.obj
 0001:0002a9b0       _get_short_arg             0042b9b0 f   LIBCD:output.obj
 0001:000296b0       _doexit                    0042a6b0 f   LIBCD:crt0dat.obj
 0001:00029790       __initterm                 0042a790 f   LIBCD:crt0dat.obj
 0001:000288f0       ?FindHandler@@YAXPAUEHExceptionRecord@@PAUEHRegistrationNode@@PAU_CONTEXT@@PAXPBU_s_FuncInfo@@EH1@Z 004298f0 f   LIBCD:frame.obj
 0001:00028b90       ?FindHandlerForForeignException@@YAXPAUEHExceptionRecord@@PAUEHRegistrationNode@@PAU_CONTEXT@@PAXPBU_s_FuncInfo@@HH1@Z 00429b90 f   LIBCD:frame.obj
 0001:00028cb0       ?TypeMatch@@YAHPBU_s_HandlerType@@PBU_s_CatchableType@@PBU_s_ThrowInfo@@@Z 00429cb0 f   LIBCD:frame.obj
 0001:00028e70       ?FrameUnwindFilter@@YAHPAU_EXCEPTION_POINTERS@@@Z 00429e70 f   LIBCD:frame.obj
 0001:00028ea0       ?CatchIt@@YAXPAUEHExceptionRecord@@PAUEHRegistrationNode@@PAU_CONTEXT@@PAXPBU_s_FuncInfo@@PBU_s_HandlerType@@PBU_s_CatchableType@@PBU_s_TryBlockMapEntry@@H1E@Z 00429ea0 f   LIBCD:frame.obj
 0001:00028f60       ?CallCatchBlock@@YAPAXPAUEHExceptionRecord@@PAUEHRegistrationNode@@PAU_CONTEXT@@PBU_s_FuncInfo@@PAXHK@Z 00429f60 f   LIBCD:frame.obj
 0001:000290b0       ?ExFilterRethrow@@YAHPAU_EXCEPTION_POINTERS@@@Z 0042a0b0 f   LIBCD:frame.obj
 0001:00029100       ?BuildCatchObject@@YAXPAUEHExceptionRecord@@PAUEHRegistrationNode@@PBU_s_HandlerType@@PBU_s_CatchableType@@@Z 0042a100 f   LIBCD:frame.obj
 0001:00029410       ?AdjustPointer@@YAPAXPAXABUPMD@@@Z 0042a410 f   LIBCD:frame.obj
 0001:000284f0       _CrtMessageWindow          004294f0 f   LIBCD:dbgrpt.obj
 0001:00026690       _realloc_help              00427690 f   LIBCD:dbgheap.obj
 0001:00027250       _CheckBytes                00428250 f   LIBCD:dbgheap.obj
 0001:00027de0       __printMemBlockData        00428de0 f   LIBCD:dbgheap.obj
 0001:00025560       _flsall                    00426560 f   LIBCD:fflush.obj
 0001:00025160       LeadUp1                    00426160 f   LIBCD:memmove.obj
 0001:0002518c       LeadUp2                    0042618c f   LIBCD:memmove.obj
 0001:000251b0       LeadUp3                    004261b0 f   LIBCD:memmove.obj
 0001:0002522f       UnwindUp0                  0042622f f   LIBCD:memmove.obj
 0001:0002521c       UnwindUp1                  0042621c f   LIBCD:memmove.obj
 0001:00025214       UnwindUp2                  00426214 f   LIBCD:memmove.obj
 0001:0002520c       UnwindUp3                  0042620c f   LIBCD:memmove.obj
 0001:00025204       UnwindUp4                  00426204 f   LIBCD:memmove.obj
 0001:000251fc       UnwindUp5                  004261fc f   LIBCD:memmove.obj
 0001:000251f4       UnwindUp6                  004261f4 f   LIBCD:memmove.obj
 0001:000251ec       UnwindUp7                  004261ec f   LIBCD:memmove.obj
 0001:00025248       TrailUp0                   00426248 f   LIBCD:memmove.obj
 0001:00025250       TrailUp1                   00426250 f   LIBCD:memmove.obj
 0001:0002525c       TrailUp2                   0042625c f   LIBCD:memmove.obj
 0001:00025270       TrailUp3                   00426270 f   LIBCD:memmove.obj
 0001:000252e8       LeadDown1                  004262e8 f   LIBCD:memmove.obj
 0001:00025308       LeadDown2                  00426308 f   LIBCD:memmove.obj
 0001:00025330       LeadDown3                  00426330 f   LIBCD:memmove.obj
 0001:00025384       UnwindDown7                00426384 f   LIBCD:memmove.obj
 0001:0002538c       UnwindDown6                0042638c f   LIBCD:memmove.obj
 0001:00025394       UnwindDown5                00426394 f   LIBCD:memmove.obj
 0001:0002539c       UnwindDown4                0042639c f   LIBCD:memmove.obj
 0001:000253a4       UnwindDown3                004263a4 f   LIBCD:memmove.obj
 0001:000253ac       UnwindDown2                004263ac f   LIBCD:memmove.obj
 0001:000253b4       UnwindDown1                004263b4 f   LIBCD:memmove.obj
 0001:000253c7       UnwindDown0                004263c7 f   LIBCD:memmove.obj
 0001:000253e0       TrailDown0                 004263e0 f   LIBCD:memmove.obj
 0001:000253e8       TrailDown1                 004263e8 f   LIBCD:memmove.obj
 0001:000253f8       TrailDown2                 004263f8 f   LIBCD:memmove.obj
 0001:0002540c       TrailDown3                 0042640c f   LIBCD:memmove.obj
 0001:00025110       CopyUp                     00426110 f   LIBCD:memmove.obj
 0001:0002512c       CopyLeadUp                 0042612c f   LIBCD:memmove.obj
 0001:00025144       ByteCopyUp                 00426144 f   LIBCD:memmove.obj
 0001:0002514c       CopyUnwindUp               0042614c f   LIBCD:memmove.obj
 0001:00025288       CopyDown                   00426288 f   LIBCD:memmove.obj
 0001:000252b0       CopyUnwindDown             004262b0 f   LIBCD:memmove.obj
 0001:000252bc       CopyLeadDown               004262bc f   LIBCD:memmove.obj
 0001:000252d4       ByteCopyDown               004262d4 f   LIBCD:memmove.obj
 0001:00024449       hard                       00425449 f   LIBCD:llmul.obj
 0001:000243a1       L1                         004253a1 f   LIBCD:lldiv.obj
 0001:000243bd       L2                         004253bd f   LIBCD:lldiv.obj
 0001:000243d9       L3                         004253d9 f   LIBCD:lldiv.obj
 0001:000243e7       L5                         004253e7 f   LIBCD:lldiv.obj
 0001:00024415       L6                         00425415 f   LIBCD:lldiv.obj
 0001:00024416       L7                         00425416 f   LIBCD:lldiv.obj
 0001:0002441a       L4                         0042541a f   LIBCD:lldiv.obj
 0001:00024424       L8                         00425424 f   LIBCD:lldiv.obj
 0001:0002430c       str_misaligned             0042530c f   LIBCD:strlen.obj
 0001:00024320       main_loop                  00425320 f   LIBCD:strlen.obj
 0001:00024353       byte_3                     00425353 f   LIBCD:strlen.obj
 0001:0002435d       byte_2                     0042535d f   LIBCD:strlen.obj
 0001:00024367       byte_1                     00425367 f   LIBCD:strlen.obj
 0001:00024371       byte_0                     00425371 f   LIBCD:strlen.obj
 0001:0002422d       dest_misaligned            0042522d f   LIBCD:strcat.obj
 0001:0002423c       find_end_of_dest_string_loop 0042523c f   LIBCD:strcat.obj
 0001:0002426f       start_byte_3               0042526f f   LIBCD:strcat.obj
 0001:00024274       start_byte_2               00425274 f   LIBCD:strcat.obj
 0001:00024279       start_byte_1               00425279 f   LIBCD:strcat.obj
 0001:0002427e       start_byte_0               0042527e f   LIBCD:strcat.obj
 0001:0002428d       src_misaligned             0042528d f   LIBCD:strcat.obj
 0001:000242a1       main_loop                  004252a1 f   LIBCD:strcat.obj
 0001:000242a6       main_loop_entrance         004252a6 f   LIBCD:strcat.obj
 0001:000242da       byte_3                     004252da f   LIBCD:strcat.obj
 0001:000242e2       byte_2                     004252e2 f   LIBCD:strcat.obj
 0001:000242ef       byte_1                     004252ef f   LIBCD:strcat.obj
 0001:000242f8       byte_0                     004252f8 f   LIBCD:strcat.obj
 0001:00024281       copy_start                 00425281 f   LIBCD:strcat.obj
 0001:00024183       adjust_loop                00425183 f   LIBCD:memset.obj
 0001:00024189       dwords                     00425189 f   LIBCD:memset.obj
 0001:000241a3       main_loop_tail             004251a3 f   LIBCD:memset.obj
 0001:000241a7       tail                       004251a7 f   LIBCD:memset.obj
 0001:000241ad       finish                     004251ad f   LIBCD:memset.obj
 0001:000241b3       toend                      004251b3 f   LIBCD:memset.obj
 0001:00023d50       LeadUp1                    00424d50 f   LIBCD:memcpy.obj
 0001:00023d7c       LeadUp2                    00424d7c f   LIBCD:memcpy.obj
 0001:00023da0       LeadUp3                    00424da0 f   LIBCD:memcpy.obj
 0001:00023e1f       UnwindUp0                  00424e1f f   LIBCD:memcpy.obj
 0001:00023e0c       UnwindUp1                  00424e0c f   LIBCD:memcpy.obj
 0001:00023e04       UnwindUp2                  00424e04 f   LIBCD:memcpy.obj
 0001:00023dfc       UnwindUp3                  00424dfc f   LIBCD:memcpy.obj
 0001:00023df4       UnwindUp4                  00424df4 f   LIBCD:memcpy.obj
 0001:00023dec       UnwindUp5                  00424dec f   LIBCD:memcpy.obj
 0001:00023de4       UnwindUp6                  00424de4 f   LIBCD:memcpy.obj
 0001:00023ddc       UnwindUp7                  00424ddc f   LIBCD:memcpy.obj
 0001:00023e38       TrailUp0                   00424e38 f   LIBCD:memcpy.obj
 0001:00023e40       TrailUp1                   00424e40 f   LIBCD:memcpy.obj
 0001:00023e4c       TrailUp2                   00424e4c f   LIBCD:memcpy.obj
 0001:00023e60       TrailUp3                   00424e60 f   LIBCD:memcpy.obj
 0001:00023ed8       LeadDown1                  00424ed8 f   LIBCD:memcpy.obj
 0001:00023ef8       LeadDown2                  00424ef8 f   LIBCD:memcpy.obj
 0001:00023f20       LeadDown3                  00424f20 f   LIBCD:memcpy.obj
 0001:00023f74       UnwindDown7                00424f74 f   LIBCD:memcpy.obj
 0001:00023f7c       UnwindDown6                00424f7c f   LIBCD:memcpy.obj
 0001:00023f84       UnwindDown5                00424f84 f   LIBCD:memcpy.obj
 0001:00023f8c       UnwindDown4                00424f8c f   LIBCD:memcpy.obj
 0001:00023f94       UnwindDown3                00424f94 f   LIBCD:memcpy.obj
 0001:00023f9c       UnwindDown2                00424f9c f   LIBCD:memcpy.obj
 0001:00023fa4       UnwindDown1                00424fa4 f   LIBCD:memcpy.obj
 0001:00023fb7       UnwindDown0                00424fb7 f   LIBCD:memcpy.obj
 0001:00023fd0       TrailDown0                 00424fd0 f   LIBCD:memcpy.obj
 0001:00023fd8       TrailDown1                 00424fd8 f   LIBCD:memcpy.obj
 0001:00023fe8       TrailDown2                 00424fe8 f   LIBCD:memcpy.obj
 0001:00023ffc       TrailDown3                 00424ffc f   LIBCD:memcpy.obj
 0001:00023d00       CopyUp                     00424d00 f   LIBCD:memcpy.obj
 0001:00023d1c       CopyLeadUp                 00424d1c f   LIBCD:memcpy.obj
 0001:00023d34       ByteCopyUp                 00424d34 f   LIBCD:memcpy.obj
 0001:00023d3c       CopyUnwindUp               00424d3c f   LIBCD:memcpy.obj
 0001:00023e78       CopyDown                   00424e78 f   LIBCD:memcpy.obj
 0001:00023ea0       CopyUnwindDown             00424ea0 f   LIBCD:memcpy.obj
 0001:00023eac       CopyLeadDown               00424eac f   LIBCD:memcpy.obj
 0001:00023ec4       ByteCopyDown               00424ec4 f   LIBCD:memcpy.obj
 0001:00023850       _fast_error_exit           00424850 f   LIBCD:wincrt0.obj
 0001:000231f8       _gu_return                 004241f8 f   LIBCD:exsup.obj
 0001:00023200       __unwind_handler           00424200 f   LIBCD:exsup.obj
 0001:00022fb0       ?CatchGuardHandler@@YA?AW4_EXCEPTION_DISPOSITION@@PAUEHExceptionRecord@@PAUCatchGuardRN@@PAX2@Z 00423fb0 f   LIBCD:trnsctrl.obj
 0001:000230c0       ?TranslatorGuardHandler@@YA?AW4_EXCEPTION_DISPOSITION@@PAUEHExceptionRecord@@PAUTranslatorGuardRN@@PAX2@Z 004240c0 f   LIBCD:trnsctrl.obj

FIXUPS: 24796 39 c 17 10 2b 9 27 9 fffffd86 2a 45 4b fffffeec fffffd4b
FIXUPS: 2430a 12 6c 2d 18 fffffe27 fffffca4 60 33 63 4f 131 19 4d 4a fffffc2c
FIXUPS: 23dc2 c32 c 1d 16 15 16 14 11 14 16 14 f e 1e 20 16 15 16 14 16
FIXUPS: 24b9b 19 19 a 1c fffffb4c e f 10 a 5 5 122a 2a3 fffff9c7 1ae fffffd1e
FIXUPS: 254fb c 10 29 2a ffffff1c fffffbbb 1a 13 28 30 30 fffffb11 5 a
FIXUPS: 248c1 1e d 19 16 14 2c 1b 17 27 16 16 2799 fffffc4d fffff9fe 2a0
FIXUPS: 26abe 34 37 60 21 20 1d 11 15 15 fffffa5f 35 18 a6 10 fffffcb8
FIXUPS: 2644a 28 76 6e 7d 41 fffff784 13 dd 23f fffffc1a 59 2eba 20 31
FIXUPS: 28c6d 4f 3a 31 18 45 18 1f 8c 69 2a 34 39 16 7c 2a 28 ffffddbc
FIXUPS: 26e34 40 40 43 4d 40 43 50 50 4d 65 f2d 1c 18 1f 62 51 60 5a ac
FIXUPS: 28307 51 2b 28 28 28 a0 2b 32 2b 39 20 49 33 142 17 1c 4c 58 b1
FIXUPS: 289bf 76 11e ffffed62 66 25 25 b3 19 59 5f 54 85 29 1f 2a 1c 50
FIXUPS: 27cbd 1f 62 34 3b 2b 3b 45 2b c 41 6b 56 36 c 2b 1c 17be a ffffd9f2
FIXUPS: 271fa 28 23 20 29 2f 1c 69 28 5f 54 21 128 1e 1b 33 2f 51 29 3c
FIXUPS: 276d8 1b 1c 6b 28 32 4f 18 1f 2aee 7 17 6b 20 ffffed78 10b 2a 18
FIXUPS: 292ee 16 2b 14 2e 18 18 7a 63 34 47 1e d 2f 15 11 1d 21 14 26 19d
FIXUPS: 297a6 19 6d3 31 16 f 17 37 19 92 18 20 62 a f3 12 24 f 1f 12 1e
FIXUPS: 2a232 f 1c 12 21 d a 13 16 13 28 14 15 346 20 8d 12 13 19 fffffdb6
FIXUPS: 2a553 78 fffffeb4 22 fffff37a 32 92 3f 6a 15 31 51 ba 3c 27 37
FIXUPS: 29b7d 3f 25 b2 65 ce 36 12 38 12c4 142 ba 31 1e 2a 1b 11d 25 122
FIXUPS: 2b61c 30 75 32 22 26 170 55 53 ffffef7d 108 10 3e 54 4b 28 fffffd5e
FIXUPS: 2a890 fffffd7d 12 1d 20 1d98 4a 94 2b fffff903 56 1e 13 22 fffffe07
FIXUPS: 2bce6 28 1f 29 26 17 12 1c fffffe2d 41 fffffdac fffff24b 34 24
FIXUPS: 2ad49 67 133 18 21 34 30 a8 1e6e 11b 21 4b 5d 17 b5 fffff92e 182
FIXUPS: 2cc2b fffffd2b a a fffffdaa 1c 77 3a 59 15 17 1d 14 13 14 1a 19
FIXUPS: 2c66f d 11 2f 25 fffffe6c 1373 32 64 140 2a 34 35 6b 12 29 43 5a
FIXUPS: 2dca9 33 3c 38 1c 1a 18 17 fffff895 ffffff54 fffffeb9 50 c 5a fffffe99
FIXUPS: 2d3d0 1e 17 13 fffffa66 1a50 2b 29 32 fffffee5 fffffd00 73 1c 1f
FIXUPS: 2e630 11 71 5f 1d c 47 fffffd5d 2b ffffff28 fffffc53 2bf 2d 2f
FIXUPS: 2deca 14 fffffef3 19 fffff884 28 19f 20 57 3784 53 66 53 25 23
FIXUPS: 30a46 2a 44 4b fffffe4d 2a 44 4b ffffe94d 191 19 de0 ffffe940 58
FIXUPS: 2ea51 17 24 2c 18 3f 10 70 10 55 fffffdd1 2f 31f4 12 5 25e 35 35
FIXUPS: 320af fffff67d 20 20 23 20 20 20 1d 20 20 2d fffffc35 37 fffff711
FIXUPS: 30c41 15d 19 18 c 25 15 3b 5b 52 6c 1fa5 93 20 68 82 10 30 10 30
FIXUPS: 3313b fffff74a a7 fffffa75 21 21 24 2a 23 fffffeb9 3a fffffda9
FIXUPS: 32111 7e c8 33 49 fffff648 23 5 111 43 107 1bf1 69 33 8c 34 fffffd5c
FIXUPS: 33664 fffffe38 27 f f 27 ffffff3e fffffe19 29 ffffffa0 17 fffff815
FIXUPS: 32a95 8c 14 26f 19 1c 13 2a 3a 10 13 16 26 1e 20a6 43 c 10 c fffff35c
FIXUPS: 34487 eb 1c8 8c 152 6d 238 13 fffff1f7 21 35 35 13a c 10 c 27 6c
FIXUPS: 33aa5 98 f6 fffffd3b 29 19 2c fffffd2e 25d3 4b 59 5a c 19 42 3c
FIXUPS: 35f25 19 28 c 21 fffff822 19 d9 13f 9e fffff9e4 70 4f 1df fffffaaa
FIXUPS: 351f3 ffffff4b fffffbe4 43 33 24 bd 2d 9b fffeb53c 14 37 23 c 25
FIXUPS: 20531 1a 7 3d 7 29 23 19 18 7 27 25 15 7 18 14 25 25 3690 1224e
FIXUPS: 35b84 45 29 3a 40 3e fffea466 24 2d 14 14 7 17405 13 f b fffe8c33
FIXUPS: 20265 20 1f 24 2b 14 172de 13 f b fffe8d63 20 27 24 2d 14 17214
FIXUPS: 37648 f b fffe8dfd 971 22 f c 6 17 8 3c 16 5d 1b cf c 1e a 15 8
FIXUPS: 1ff45 20 1b 24 2d 14 17560 13 f b fffe8ac6 26 16 61 20 847 15 15
FIXUPS: 20972 9 9 e c a 10 14 161 c 13 15 15 16 1e 9 d 19 c 9 9 8 1e 10
FIXUPS: 20d37 1e 49 10 15 318 13 ce 91 ae e e 11 e 11 11a 84 20 1a fffff1ec
FIXUPS: 2074b 13 1d 55 20 16e84 b fffe91e1 11 a f 16e0a b fffe922b 1a 16
FIXUPS: 20910 16de5 b fffea39c 16 16 42 26 f 14 14 15bad b fffea49c 1a
FIXUPS: 37745 b fffea4ce 16 2a b 52 1e 15a9c b fffea5af 1f f 92 4a 72 44
FIXUPS: 21f61 146 4b 1b 20 3a fffff3fd 47 2d 11 b3 33 39 14 2f 15 8 2c
FIXUPS: 217a8 5d 14 3d 48 16 2a b 52 36 15d54 b fffea30b 34 13 15d9a fffeac02
FIXUPS: 223d4 2a b 5c 1e 18 1533a c b fffead29 1e 30 152a2 c b fffeae1d
FIXUPS: 2264b 151dc b fffea984 3c 86 27 25 fffffd0b 18 43 2a 14 27 f34
FIXUPS: 22fcd e 9 9 b 25 fffff660 17 c 17 1c 1a 8 19d 21 12 c 1a 1c 1a
FIXUPS: 2294b 8 c 39 32 e fffff96d 1a 14 15432 c fffec5be fffff363 c a
FIXUPS: 2310e 10 67 a c 6c a 17 a fffff859 13 e8 24 1ad a f a 25 a 52 80
FIXUPS: 22eaa 3f 83 a 10 25 c 951 28 3f 20 18 b 33 15 1b 27 11 49 54 11
FIXUPS: 23b26 17 2e b 1b 1a 50 1a 13cc0 b fffec37e 16 2a b 52 1e 13bec
FIXUPS: 37910 fffeba44 2a b 52 36 14444 b fffebc4b 34 13 14393 b fffebd0c
FIXUPS: 235b2 16 42 26 f 14 14 1423d b fffebe15 56 36 19 11 27 44 14 26
FIXUPS: 238ad fffe6812 26 78 ce 35 31 17 10 29 17 10 67 38 83 10 37 13
FIXUPS: a497 b2 26 5f c 25 2f c 25 32 10 34 17 18bda 78 13511 fffd3335
FIXUPS: 9b94 31 10 41 f 22 13 18 13 1f 1a 2cba6 b fffd3537 a d 48 2a 5d
FIXUPS: 36885 c fffd364d 25 37 25 5a 2c8ec b c fffd37e8 fffff73a 13 b 13
FIXUPS: 981a 11 11 17 17 2cfba b fffd3074 c 11 18 3e 10 2c 10 84 12 13
FIXUPS: 9a16 17 17 18 b 15 11 2d 17 2cd73 fffd2d17 11 17 17 2d22a b fffd2e12
FIXUPS: 95f1 16 1f 1a 2d1a4 b fffd2e92 10 16 1f 1a 2d124 b fffd2f17 10
FIXUPS: 9747 e 10 16 b 11 e f f 10 fffffaf2 30 9 9 10 4f f 26 f 12 19 1f
FIXUPS: 940e 2d396 b fffd2ca7 10 11 e 10 16 b 11 e f f 10 b 13 b 13 b fffff8c3
FIXUPS: 8e4f 9 10 3d 10 30 10 90 10 41 12 18 b 15 11 21 21 17 2d6fa b fffd293b
FIXUPS: 90d7 9e 10 2c 10 94 9 17 30 9 fffff89f 12 b b 12 b 16 b 13 14 9
FIXUPS: 8bee 12 b b 12 b e d 8 15 16 1a 2dac9 b fffd25a0 24 1f 2f 13 13
FIXUPS: 8dfd fffffb83 b 16 b b 11 11 b 12 12 b b 12 b 16 b 13 14 9 b 12
FIXUPS: 8ab4 b 12 b e e b b 11 11 b fffffbd7 10 15 28 18 10 17 17 2df8f
FIXUPS: 3674f fffd20a7 15 c 14 18 c 2e 10 c 12 1b d f f 10 10 f 13 14 b
FIXUPS: 8967 e fffffa71 c c 26 1a 2e2c6 b fffd1d65 27 3a 9 17 34 11 9 1d
FIXUPS: 8599 11 9 1d 46 29 e 9 11 c c 11 17 2e07d b fffd1fc7 fffffb17 11
FIXUPS: 8230 b 12 e 9 b 11 b 11 b 11 12 16 b 11 b 12 15 9 b 11 b e 10 b
FIXUPS: 8399 b 12 e 10 fffffc64 12 b 12 e 9 b 11 b 11 b 11 12 16 b 11 b
FIXUPS: 8133 15 9 b 11 b e 10 b 12 b 12 e 13 b fffffc46 9 17 e f f 10 b
FIXUPS: 7ebc b 13 b 10 12 16 d f d a 12 16 d f d b 14 14 15 b 17 b 11 fffffc1d
FIXUPS: 7c5a 13 16 13 b f 1d b 11 e 10 13 13 e 10 b 11 e 10 b 10 f 10 b
FIXUPS: 7ddd b 13 b 11 e 10 fffff8fd 16 1a 2ef82 b fffd10aa 23 17 10 36
FIXUPS: 782a 9 11 6 13 1d 23 3c 23 13 38 d 2d 10 161 10 2b c d d6 7 11
FIXUPS: 74aa 9 21 20 9 29 9 1d c 9 6 f 29 9 26 2a 2f0cc b fffd0f77 10 9
FIXUPS: 7674 9 15 17 f 1a f b 8 1a 10 2ef91 fffd0845 10 35 18 34 17 9e
FIXUPS: 7057 eb 18 37 2b 46 d 43 d 80 10 32 b 17 35 17 4d 1a 21 10 c 19
FIXUPS: 745f 1f fffff3f5 12 103 1d 43 1d c9 2f 3e 10 3a 17 39 17 3d 1b
FIXUPS: 6c61 34 d 37 17 35 d 48 f f f 1c 2c 19 17 2f885 fffcfdd3 1a 13
FIXUPS: 64b3 18 8 1a 13 d 3e 1a 11 1a d 34 d 63 11 a d b2 30 22 4c 13 11
FIXUPS: 67ef 19 1c 13 11 12 fffff402 14 4c 14 3d7 d a3 d 39 d 43 d 40 11
FIXUPS: 625f e 11 14 d 86 24 36 17 302ef c fffcfd6a 18 8 1a 13 f 18 fffff337
FIXUPS: 57c4 2d 1e 2d 1e 2d 1e 30 29 29 29 1c 1c 29 1c 1c 29 1c 1c 36 1c
FIXUPS: 5ab8 22 22 19 18 17 9 11 1e 10 fffff801 a 11 13 16 17 a f 3a 14
FIXUPS: 545f d 3f d 32 45 1f 1e 2d 1e 2d 1e 2d 1e 2d 1e 2d 1e 2d 1e 2d
FIXUPS: 5779 fffff924 11 13 23 17 d 12 45 13 22 17 d 11 13 23 17 d 11 13
FIXUPS: 526a 17 d 12 43 f 13 16 17 a 11 13 16 fffff948 1c 1a 1d 27 30 1d
FIXUPS: 4dac 2c 1d 27 23 3c 11 10 11 11 10 d 76 20 22 19 2d 13 22 17 d
FIXUPS: 5043 13 23 17 fffff91f a 1c 31c73 c fffce3dd b 11 11 10 a 10 a
FIXUPS: 4aa2 c 14 7 23 b 36 27 23 31aee c fffce555 f f 1e 18 18 13 52 fffff9d4
FIXUPS: 36625 c fffce099 c 2c 9 8 9 11 10 15 15 15 52 19 1f 23 1f 7 30
FIXUPS: 48c1 15 11 22 13 11 20 a 14 13 11 fffff879 2b d 52 16 17 d 5c 23
FIXUPS: 436c d 5e 23 20 d 5b 1e 1b d 5d 2b b 22 7 17 3206a c fffcdfe4 2b
FIXUPS: 462b 22 7 fffff920 14 23 7 b 26 17 a 14 13 14 23 7 b 26 17 a 14
FIXUPS: 40e2 14 23 7 b 26 17 a 1c 1a 3242d b b c fffcd709 b 26 17 a 14
FIXUPS: 3d79 14 23 7 b 26 17 a 14 13 14 23 7 b 26 17 a 1c 1a 326af b b
FIXUPS: 365c7 fffcd983 8 f fffffb7f d 21 32a19 c c c b fffcd613 b b f 14
FIXUPS: 3bab 11 15 11 11 f f 12 17 3292d c c c b fffcd70a f 13 14 23 327d2
FIXUPS: 364d6 fffcd393 b b 13 12 f f 25 18 51 d d d 21 32b4f c c c b fffcd4d3
FIXUPS: 39f4 b 13 12 f f 20 13 51 d fffffaeb d d d 21 32e61 c c c b fffcd19b
FIXUPS: 3644 13 3a d 4b b b 13 12 f f 25 19 51 d d d 21 32c8e c c fffd4588
FIXUPS: aa78 d 33 d 32 16 d 3d 16 d 3d 1f d 34 1f d 34 1f d 104 e 16 ffff871e
FIXUPS: 34f4 b 13 12 f f 1c f 8e88 61 35 5e 26 85 16 ffffe1e4 1a 21 2c0fb
FIXUPS: 368cf fffd3f32 13 13 53 14 1a 21 2c01b b fffd4037 1a 21 2bfa3 b
FIXUPS: a9be 1a 21 2bf2b b fffd410b 1436 2abb5 c fffd5512 d 31 19 40 d
FIXUPS: c041 13 13 af a d 3c d 2b d 33 13 13 57 25 37 25 5a 2a70c b c fffd5958
FIXUPS: c3cf 2a5a1 b b b b b b b b b e c fffd51be f 20 27 1b 3b d 4a 2e
FIXUPS: bd01 d 2e 25 20 2ac84 b c fffd53e2 2c 25 fffff7a3 a 32 34 4d a
FIXUPS: b6eb 34 4f a 32 34 4d a 32 34 4f a 32 34 4d 19 36 34 7 2d 34 10
FIXUPS: bad8 34 31 2ae28 fffd4714 e 1b a 23 2a 2f b 9 d 50 19 d 4a 20 27
FIXUPS: b269 79 18 89 36 34 c 36 34 15 38 34 4f a 32 34 185f 7 e 17 7 e
FIXUPS: ce5a 7 e 3d 7 e 17 7 e 17 7 e 17 7 e 10 ffffdf8f 37 36 13 13 8a
FIXUPS: b01f 17 2b911 b fffd62b2 e 1a 7 e 1a 7 e 1a 7 e 1a 7 e 1a 7 e 1a
FIXUPS: cd1e e 1a 7 e 1a 7 e 1a 7 e 1a 7 e fffff921 23 30 5f 26 2d 41 2d
FIXUPS: c8c1 24 31 30 3f 18 5 13 14 14 e 1b 55 56 2e 29f89 e e c fffd6089
FIXUPS: cb1f d 57 7a 6a63 d 48 2a 5d 234b9 c fffdcb85 a d a4 13 13 3a 13
FIXUPS: 138c7 b5 12 26 55 26 75 1b 26 54 26 ffff8b0a 7 d 5a 5 1e 671d 19
FIXUPS: 12e49 19 19 19 19 19 19 19 19 19 19 16 16 16 16 16 d 39 42 1a 23b65
FIXUPS: 36bc4 fffdc8ec 30 24 d 1c 236a8 c fffdca75 fffff4a1 19 19 19 19
FIXUPS: 12b74 19 19 19 19 19 19 19 19 19 19 19 19 19 19 19 19 19 19 19
FIXUPS: 12d68 19 19 19 19 19 19 fffff9d9 19 19 19 19 19 19 19 19 19 19
FIXUPS: 128ea 19 19 19 19 19 19 19 19 19 19 19 19 19 19 19 19 19 19 19
FIXUPS: 12ade fffff9d9 19 19 19 19 19 19 19 19 19 19 19 19 19 19 19 19
FIXUPS: 12660 19 19 19 19 19 19 19 19 19 19 19 19 19 19 fffff5b5 2e d 5d
FIXUPS: 11e2a 2d 9 16 a 20 24cf5 c fffdb366 21 d 45 4d 21 27 e d 5c 4a
FIXUPS: 12119 3a 1a 5b 41 27 10 245 19 fffff234 1c d9 24 10 1a e 14 e 14
FIXUPS: 11876 e 1a 3c 8 13 26 1e c 3d 25 17 28 25 10 1f3 41 53 2b 27 17
FIXUPS: 11d66 fffff50f 15 62 b 1c 2f 1c 14 20 24 22 f 22 d 4f 15 62 b 13
FIXUPS: 1151f 1c b 16 24 22 f 22 d 44 d 3d d fffff6bd 2f 18 19 31 24 2b
FIXUPS: 10e2b 22 10 9d d b4 15 62 b 13 25 1c b 25 18 19 31 24 2b 13 22
FIXUPS: 111b7 3a 13 13 fffff561 f 22 d 1bf 15 62 b 13 25 1c b 16 24 22
FIXUPS: 10ac1 22 d 31 19 40 d 2a 13 13 64 15 62 b 1c 2f 1c fffff536 3e
FIXUPS: 102aa d 12 9b 27 10 47 b 2d 61 10 32 12 d 33 27 10 30 2e 1f 52
FIXUPS: 1062a 62 b 1c 2f 1c 14 20 24 ffffefda 1a 25 d 8b 1a 26 d 4e 5a
FIXUPS: f97f d2 74 8e 26 26 c1 74 a2 25 26 84 a1 83 b6 42 f3 26 16 2f 5c
FIXUPS: 1024a ffffeaf8 21 f 4a 5e 2a 27 d 4e 45 2e 2d 38 d 30 5b 59 d9
FIXUPS: f18b 26 16 2a 55 59 dc 2d 25 1c 35 5e 4f 4f fffff29d 19 f 38 19
FIXUPS: e83f 3c 11 d 42 d 43 d c6 9 d 84 10 29 d 54 16 40 22 8 58 1e 26
FIXUPS: ec5b 58 27 48 fffff637 287cc b b c fffd7857 d 7d 27 35 26 17 17
FIXUPS: 36b55 c fffd79f7 2b 35 26 17 17 28569 c fffd7aca 7 d 38 d 37 d
FIXUPS: e727 d fffff4db 63 27 3b 27 8 a9 37 36 20 27 2a 5b 5e 29 13 38
FIXUPS: e041 37 36 30 2a 79 12 39 29 4f 29 19 2f 13 77 fffff3b2 63 d 63
FIXUPS: d7d1 63 d 4b 31 27 f 16 18 1a 20 34 36 20 11 1a 17 22 1a 22 12
FIXUPS: daf2 27 29 27 2d 27 2b fffff735 26 27 2e 27 21 296ca f f b fffd693e
FIXUPS: d424 13 6b 21 3c 30 12 12 12 15 17 29559 f f b fffd6ade d 63 f
FIXUPS: d67d 67 6f5e 11 d d e8 9c d 19 17 17 17 d 10e a7 d d ffff8604 e
FIXUPS: d05f 12 12 e e 1d 1c 7 6e 76 23 26 c5 25 82c8 1d 1f 10 2da d 5b
FIXUPS: 1595e 26 ffffe210 14 44 35 13 13 56 10 34 7 3f 4d 1a 73 3d d ef
FIXUPS: 13fc9 d e4 8f d 2a9 22843 fffde542 17 13 f 5c 20 38 106 17 17 f
FIXUPS: 153d9 17 17 f 25 17 17 f d d 1b 1d 2d 22 1d b 22 12 1f 12 fffff7d7
FIXUPS: 14d97 12 d 71 d 54 1c 20 29 1a 1e 14 e e 14 e 1a d 11 15 f 14 b
FIXUPS: 14ffd d 11 f 45 21 1a 21b8d fffdf255 71 1d d 33 2d 1d 20cf1 c fffdf347
FIXUPS: 15ff5 2c 13 13 ffffea80 1d 5a 1c 17 30 17 3b 1a 26 2e 13 13 5f
FIXUPS: 14cfb 17 21f08 b fffdf9af 7 d 47 8 20 2d 21 7 1b d 17 d fffff2e6
FIXUPS: 15ad4 1d d 33 2d 1d 210da c fffdef7c 102 1d d 33 2d 1d 20eef c
FIXUPS: 15dd7 20f1d 9 b fffdf64e 21 15 13 f 1a 2094c 9 b fffdf6d9 d 4b
FIXUPS: 1646d 1d d 7 e 2c 17 27 1f 13 1c 6 7 17 207ad c fffdf88e f58 27
FIXUPS: 1755b 47 16 26 d ffffeabb 29 15 13 f 1a 20b94 9 b fffdf489 13 13
FIXUPS: 161d3 f 17 20adb b fffdf552 d 58 1d 15 13 f 1a e30 1d d 7 e 2c
FIXUPS: 171b6 27 23 68 1d d 7 e 2c 17 27 26 1fafe b c fffe057d d 33 d 34
FIXUPS: 17457 32 d 34 d 3b fffff8e1 1a 1fff7 9 f b fffe002c c 19 11 16
FIXUPS: 16eb1 14 1a 8 5 7 a 17 64 45 22 b a 8 10 38 6 7 d 4d d fffffa51
FIXUPS: 16b24 18 1a 2024e 9 f b fffdfde0 f e e 2e c 13 3e 1b 18 1a 2012a
FIXUPS: 36ddd f b fffdff14 f e e 2e c 13 3d 1b 1ea7 15 d 3e 12 d ffffdb6b
FIXUPS: 1687e e e 2e c f 2a 20447 f b fffdfbd3 13 13 5c f 17 2039b b fffdfcc4
FIXUPS: 16a62 e e 2e c 13 204ca c fffe197a 1d d 7 b 32 2a 17 27 26 1e59e
FIXUPS: 36fc1 fffe1aba 1d d 7 b 32 2a 17 27 26 1e45e c fffe1be1 15 d 3e
FIXUPS: 18c34 d fffff8e4 7 b 32 2a 17 27 26 1e95e c fffe16fa 1d d 7 b 32
FIXUPS: 186f3 17 27 26 1e81e c fffe183a 1d d 7 b 32 2a 17 27 26 fffff8bc
FIXUPS: 1818a 27 26 1ed1e c fffe133a 1d d 7 b 32 2a 17 27 26 1ebde c fffe147a
FIXUPS: 183b8 d 7 b 32 2a 17 27 26 1ea9e c fffe15ba 1d fffff8a2 d 54 1d
FIXUPS: 17e45 7 b 32 2a 17 27 26 1ef9e c fffe10ba 1d d 7 b 32 2a 17 27
FIXUPS: 18077 1ee5e c fffe11fa 1d d 7 b 32 fffff7fe c 38 28 24 1f4bd b
FIXUPS: 17a1e 1d 13 23 23 11 c 17 6e 4c 17 d 56 17 d 75 14 11 9 9 29 3b
FIXUPS: 17d67 24 25 1f287 b fffe1f46 d ffffe6b7 12 e 13 c 38 28 24 1f745
FIXUPS: 36e5f fffe08e2 13 13 3a d 52 12 e 13 c 38 28 24 1f5b1 b fffe0a95
FIXUPS: 17926 e 2cde d 43 d 6a d 91 f 17 1ca27 b fffe360d 10 ffffe55f 29
FIXUPS: 18d95 1e262 b fffe1dbf 13 13 3d b d 4f 28 21 1e143 b fffe1f07 12
FIXUPS: 18f52 11cf 17 23 d 29 75 d 6a c 1f 21 15 8 41 1d 26 26 d d 73 c
FIXUPS: 1a448 21 15 41 1d 26 26 d d 5f 2b fffff7b2 7 b 2c 17 27 1d 1d d
FIXUPS: 19e48 b 2c 17 27 26 1d2a2 b c fffe2d8f d 9c 1d d 7 b 22 7 17 1d155
FIXUPS: 371b1 fffe2f1f d fffff923 17 10 9 1e 2f 20 1d 31 3c 7 24 36 7 24
FIXUPS: 19bf2 7 24 3f 7 24 3f 1a 1d455 a a b b b c fffe2bde 1d fffff7c8
FIXUPS: 1954b 1a 1db7f 9 f b fffe24c4 15 19 11 f 17 1dae4 b fffe2567 14
FIXUPS: 196b3 4c 16 1b d 52 18 b8 23 d ae 1c 2b 1c d fffff7e6 40 12 2c
FIXUPS: 19253 c 12 12 1a 1dde7 9 f b fffe2250 40 12 2c 42 c 12 12 1a 1dcb3
FIXUPS: 370bd f b fffe2384 40 12 2c 42 c 24c2 2a 17 27 26 1b94e c fffe470a
FIXUPS: 1baf8 d 7 b 32 2a 17 27 26 1b80e c fffe1beb 40 12 2c 42 c 21 1df8b
FIXUPS: 37063 b fffe2093 13 13 2530 1bd0e c fffe434a 1d d 7 b 32 2a 17
FIXUPS: 1b791 26 1bbce c fffe448a 1d d 7 b 32 2a 17 27 26 1ba8e c fffe45ca
FIXUPS: 1b998 d 7 b fffff901 d 7 b 32 2a 17 27 26 1bf8e c fffe40ca 1d d
FIXUPS: 1b42c b 32 2a 17 27 26 1be4e c fffe420a 1d d 7 b 32 2a 17 27 fffff8b8
FIXUPS: 1af13 17 27 26 1c34e c fffe3d0a 1d d 7 b 32 2a 17 27 26 1c20e c
FIXUPS: 1b13b 1d d 7 b 32 2a 17 27 26 1c0ce c fffe3f8a fffff96b 1a 1c644
FIXUPS: 3726d f b fffe39f4 f e e 17 c 12 52 1b 1a 1c532 9 f b fffe3af2
FIXUPS: 1adb7 11 c 2f 12 d 59 1d d 7 b 1c33c b fffe36e3 13 13 5c f 17 1c88b
FIXUPS: 3721f fffe37d4 f e e 17 c 13 53 1b 1a 1c758 9 f b fffe38e0 f e
FIXUPS: 1ab62 17 c 13 53 13eb a d 8c d 2b d 33 13 13 57 25 37 25 5a 1b1dc
FIXUPS: 37430 c fffe4e7a 35 5e 26 a9 13 ffffe411 12 e e 17 c 21 1c936 fffe6907
FIXUPS: 1db20 66 35 40 d ffffe00c 1d 10 30 13 13 4f b d 4d 2b 2a 17 1b64e
FIXUPS: 37411 fffe49e3 d 33 d 30 19 40 d 2a 13 13 1402 1a13c b c fffe5f17
FIXUPS: 1d3ac 20 3a 2a 48 1a00d c fffe603d 1f 8c 1b 1f 72 33 e4 1b 32 80
FIXUPS: 1d824 32 35 d 46 28 7a 22 7b fffff3bc 8 d 33 35 2f b 8 28 35 b
FIXUPS: 1cf20 10 31 b 8 28 35 b 8 28 35 35 ff 2a 5d 1a249 c fffe5dfd 25
FIXUPS: 1d2aa 25 fffff774 4b 77 30 2c 28 8 9 d 3a 28 8 9 d 3a 2c 8 9 d
FIXUPS: 1cce5 8 8 d 33 8 8 d 2f 8 8 d 33 16b1 21 ffffdfbe 41 33 41 78 11
FIXUPS: 1c5ac 26 d 6c 11 d 22 d 86 11 10 26 d 69 11 10 22 d 70 36 6a 11
FIXUPS: 1c964 ce 163d 1e 1e 1d 1e 1e 1d 94 18 19 21 15 15 12 18 19 21 15
FIXUPS: 1e2bf 12 18 19 21 15 15 13 44 30 e 22 40 30 1681 74 d 5a 1c 1d
FIXUPS: 1fc16 3c 3f 14 2b d 3c 3f 14 b 19 1f 1d 1772b d e c fffe67e3 1f
FIXUPS: 1de56 1f 131 1f 51 1e 1e 145b 22 d 3c 3f 24 10 3b 51 2e 33 42 24
FIXUPS: 1f704 c7 43 41 64 7b 4d 9b 12 1a 17a65 d e e e c fffe85c0 27 11
FIXUPS: 1ef2f 53 35 24 10 5b 2e 72 10 25 10 11 d 51 4c 8 d 65 1c 1d d 3c
FIXUPS: 1f321 14 2b d 3c 3f 14 29 d 3c fffff531 d 41 16 82 1e 19 30 2d
FIXUPS: 1eb3c d ac 1b 63 2a 1b 9 25 2b 35 24 10 4b 4b c d c 1f 13 69 2a
FIXUPS: 1ef0a fffe2722 9d d 3b d 1ce69 e 61 2a 31 13 13 40 e 5f 2a 39 e
FIXUPS: 1e7ae 39 e 19 39 e 35 b 10 32 e 35 f 10 1799c b c fffcaf47 a 1c
FIXUPS: 126c 17 1c b a 17 1c b a 8 10 30 6 7 d 195 d 34 d 32 d 34 d 41
FIXUPS: 1613 c 332 13 13 67 12 7 9 20 2a 12 a 24 37 7 1a 34815 d c fffcad15
FIXUPS: 1045 2c 13 13 43 d 41 29 24 a 2f 24 17 114d 35 7 a d 59 2a 1e 1b
FIXUPS: 245c d 42 2c 22 2e 22 12 22 10 fffff22c 5 d 33 d 33 10 30 d 36
FIXUPS: 18ce 33 19 751 1c b a 17 1c b a 8 13 a 1f 13 17 1c b a 17 1f b
FIXUPS: 21ce 8 10 2e 6 7 d c1 23 6 7 a fffff9a3 3e 3463a b fffcba0d a 29
FIXUPS: 1db8 f 3a a 38 1b 26 27 13 35 32 2e 13 4b 11 11 1a 34378 b a a
FIXUPS: 3638e b fffcbca8 13 110c 19 18 21 24 1a 1f 18 10 3e 1d 22 d 3c
FIXUPS: 330a 37 2b 46 d 43 d ffffe75b 12 3e 3476a b fffcb8c2 13 13 3a d
FIXUPS: 1cba 1111 17 1c b a 17 1f b a 8 10 2e 6 7 d ca 23 6 7 a 22 18 10
FIXUPS: 304b 7 a d 62 2a 19 18 22 fffffa05 2e 13 4b 11 11 7 24 3f 1a 33786
FIXUPS: 3640f a a a a a c fffcc884 13 17 1c b a 17 1c b a 8 13 a 1f fffff972
FIXUPS: 273c e 3e 33c1c b fffcc402 13 13 5c f 17 33b6b b fffcc4eb 12 e
FIXUPS: 2918 33acc b fffcc57d a 38 20 1d 29 13 3e 32 2d 13 44
